MODULE Linux x86_64 59B41E8BA39EB67951F8D8CA60645DF10 app
INFO CODE_ID 8B1EB4599EA379B651F8D8CA60645DF1B4619D54
FUNC 19a0 20 0 google_breakpad::LineReader::PopLine(unsigned int)
FUNC 19c0 2c 0 MinidumpWriter::~MinidumpWriter
FUNC 19ec 20 0 google_breakpad::TypedMDRVA<MDRawDirectory>::CopyIndex(unsigned int, MDRawDirectory*)
FUNC 1a0c 1d 0 google_breakpad::TypedMDRVA<MDRawDirectory>::CopyIndex(unsigned int, MDRawDirectory*)
FUNC 1a2a 20 0 google_breakpad::TypedMDRVA<unsigned int>::AllocateObjectAndArray(unsigned long, unsigned long)
FUNC 1a4a 20 0 google_breakpad::TypedMDRVA<unsigned int>::CopyIndexAfterObject(unsigned int, void const*, unsigned long)
FUNC 1a6a 20 0 MinidumpWriter::MinidumpWriter
FUNC 1a8a 1f2 0 MinidumpWriter::WriteFile
FUNC 1c7c 68 0 MinidumpWriter::WriteProcFile
FUNC 1ce4 20 0 google_breakpad::TypedMDRVA<MDString>::CopyIndexAfterObject(unsigned int, void const*, unsigned long)
FUNC 1d04 20 0 google_breakpad::TypedMDRVA<MDString>::AllocateObjectAndArray(unsigned long, unsigned long)
FUNC 1e26 39 0 dumpCallback
FUNC 1e5f 18 0 buggy_function()
FUNC 1e77 153 0 main
FUNC 1fca 39 0 google_breakpad::MicrodumpExtraInfo::MicrodumpExtraInfo()
FUNC 2004 df 0 google_breakpad::MinidumpDescriptor::MinidumpDescriptor(std::string const&)
FUNC 20e4 12 0 google_breakpad::MinidumpDescriptor::path() const
FUNC 20f6 2e 0 google_breakpad::MinidumpDescriptor::~MinidumpDescriptor()
FUNC 2130 122 0 google_breakpad::ExceptionHandler::InstallHandlersLocked()
FUNC 2260 7c 0 google_breakpad::ExceptionHandler::RestoreHandlersLocked()
FUNC 22e0 3d8 0 google_breakpad::ExceptionHandler::~ExceptionHandler()
FUNC 26c0 ce 0 google_breakpad::ExceptionHandler::SendContinueSignalToChild()
FUNC 2790 4b2 0 google_breakpad::ExceptionHandler::GenerateDump(google_breakpad::ExceptionHandler::CrashContext*)
FUNC 2c50 1d2 0 google_breakpad::ExceptionHandler::HandleSignal(int, siginfo_t*, void*)
FUNC 2e30 1c0 0 google_breakpad::ExceptionHandler::SignalHandler(int, siginfo_t*, void*)
FUNC 2ff0 7f 0 google_breakpad::ExceptionHandler::SimulateSignalDelivery(int)
FUNC 3070 e3 0 google_breakpad::ExceptionHandler::WaitForContinueSignal()
FUNC 3160 c2 0 google_breakpad::ExceptionHandler::DoDump(int, void const*, unsigned long)
FUNC 3230 28 0 google_breakpad::ExceptionHandler::ThreadEntry(void*)
FUNC 3260 1ad 0 google_breakpad::ExceptionHandler::WriteMinidump()
FUNC 3410 d7 0 google_breakpad::ExceptionHandler::AddMappingInfo(std::string const&, unsigned char const*, unsigned long, unsigned long, unsigned long)
FUNC 34f0 6d 0 google_breakpad::ExceptionHandler::RegisterAppMemory(void*, unsigned long)
FUNC 3560 41 0 google_breakpad::ExceptionHandler::UnregisterAppMemory(void*)
FUNC 35b0 1ec 0 google_breakpad::ExceptionHandler::WriteMinidumpForChild(int, int, std::string const&, bool (*)(google_breakpad::MinidumpDescriptor const&, void*, bool), void*)
FUNC 37a0 396 0 google_breakpad::ExceptionHandler::ExceptionHandler(google_breakpad::MinidumpDescriptor const&, bool (*)(void*), bool (*)(google_breakpad::MinidumpDescriptor const&, void*, bool), void*, bool, int)
FUNC 3b40 20f 0 google_breakpad::ExceptionHandler::WriteMinidump(std::string const&, bool (*)(google_breakpad::MinidumpDescriptor const&, void*, bool), void*)
FUNC 3d50 f4 0 void std::vector<google_breakpad::ExceptionHandler*, std::allocator<google_breakpad::ExceptionHandler*> >::_M_emplace_back_aux<google_breakpad::ExceptionHandler*>(google_breakpad::ExceptionHandler*&&)
FUNC 3e50 32 0 std::string::_Rep::_M_dispose(std::allocator<char> const&)
FUNC 3e90 ab 0 google_breakpad::MinidumpDescriptor::MinidumpDescriptor(google_breakpad::MinidumpDescriptor const&)
FUNC 3f40 30c 0 google_breakpad::MinidumpDescriptor::UpdatePath()
FUNC 4250 c6 0 google_breakpad::MinidumpDescriptor::operator=(google_breakpad::MinidumpDescriptor const&)
FUNC 4320 34 0 logger::write(char const*, unsigned long)
FUNC 4360 1b18 0 google_breakpad::WriteMicrodump(int, void const*, unsigned long, std::list<google_breakpad::MappingEntry, std::allocator<google_breakpad::MappingEntry> > const&, bool, unsigned long, bool, google_breakpad::MicrodumpExtraInfo const&)
FUNC 5e80 3f3 0 void std::vector<unsigned char, google_breakpad::PageStdAllocator<unsigned char> >::_M_range_insert<unsigned char const*>(__gnu_cxx::__normal_iterator<unsigned char*, std::vector<unsigned char, google_breakpad::PageStdAllocator<unsigned char> > >, unsigned char const*, unsigned char const*, std::forward_iterator_tag)
FUNC 6280 6 0 google_breakpad::LinuxDumper::LateInit()
FUNC 6290 67 0 google_breakpad::LinuxDumper::~LinuxDumper()
FUNC 6300 12 0 google_breakpad::LinuxDumper::~LinuxDumper()
FUNC 6320 4a 0 google_breakpad::LinuxDumper::GetMappingAbsolutePath(google_breakpad::MappingInfo const&, char*) const
FUNC 6370 19f 0 ElfFileSoName
FUNC 6510 1a7 0 google_breakpad::LinuxDumper::HandleDeletedFileInMapping(char*) const
FUNC 66c0 e6 0 google_breakpad::LinuxDumper::GetMappingEffectiveNameAndPath(google_breakpad::MappingInfo const&, char*, unsigned long, char*, unsigned long)
FUNC 67b0 129 0 google_breakpad::LinuxDumper::ReadAuxv()
FUNC 68e0 32 0 google_breakpad::LinuxDumper::Init()
FUNC 6920 68 0 google_breakpad::LinuxDumper::StackHasPointerToMapping(unsigned char const*, unsigned long, unsigned long, google_breakpad::MappingInfo const&)
FUNC 6990 4b 0 google_breakpad::LinuxDumper::FindMapping(void const*) const
FUNC 69e0 7d 0 google_breakpad::LinuxDumper::GetStackInfo(void const**, unsigned long*, unsigned long)
FUNC 6a60 43 0 google_breakpad::LinuxDumper::FindMappingNoBias(unsigned long) const
FUNC 6ab0 20c 0 google_breakpad::LinuxDumper::SanitizeStackCopy(unsigned char*, unsigned long, unsigned long, unsigned long)
FUNC 6cc0 53 0 google_breakpad::LinuxDumper::HandleDeletedFileInMapping(char*) const
FUNC 6d20 335 0 google_breakpad::LinuxDumper::ElfFileIdentifierForMapping(google_breakpad::MappingInfo const&, bool, unsigned int, google_breakpad::wasteful_vector<unsigned char>&)
FUNC 7060 5ff 0 google_breakpad::LinuxDumper::LinuxDumper(int, char const*)
FUNC 7660 b46 0 google_breakpad::LinuxDumper::EnumerateMappings()
FUNC 81b0 2a9 0 std::vector<unsigned long, google_breakpad::PageStdAllocator<unsigned long> >::_M_default_append(unsigned long)
FUNC 8460 256 0 void std::vector<google_breakpad::MappingInfo*, google_breakpad::PageStdAllocator<google_breakpad::MappingInfo*> >::_M_emplace_back_aux<google_breakpad::MappingInfo* const&>(google_breakpad::MappingInfo* const&)
FUNC 86c0 3 0 google_breakpad::LinuxPtraceDumper::IsPostMortem() const
FUNC 86d0 187 0 google_breakpad::LinuxPtraceDumper::CopyFromProcess(void*, int, void const*, unsigned long)
FUNC 8860 b0 0 google_breakpad::LinuxPtraceDumper::BuildProcPath(char*, int, char const*) const
FUNC 8910 2b 0 google_breakpad::LinuxPtraceDumper::BuildProcPath(char*, int, char const*) const
FUNC 8940 bb 0 google_breakpad::LinuxPtraceDumper::ThreadsResume()
FUNC 8a00 51d 0 google_breakpad::LinuxPtraceDumper::ThreadsSuspend()
FUNC 8f20 56f 0 google_breakpad::LinuxPtraceDumper::GetThreadInfoByIndex(unsigned long, google_breakpad::ThreadInfo*)
FUNC 9490 27 0 google_breakpad::LinuxPtraceDumper::LinuxPtraceDumper(int)
FUNC 94c0 3b6 0 google_breakpad::LinuxPtraceDumper::EnumerateThreads()
FUNC 9880 13 0 google_breakpad::LinuxPtraceDumper::~LinuxPtraceDumper()
FUNC 98a0 20 0 google_breakpad::LinuxPtraceDumper::~LinuxPtraceDumper()
FUNC 98c0 246 0 void std::vector<int, google_breakpad::PageStdAllocator<int> >::_M_emplace_back_aux<int const&>(int const&)
FUNC 9b10 e8d 0 MinidumpWriter::WriteThreadListStream
FUNC a9a0 22a8 0 MinidumpWriter::Dump
FUNC cc50 469 0 WriteMinidumpImpl
FUNC d0c0 109 0 google_breakpad::WriteMinidump(char const*, int, void const*, unsigned long, bool, unsigned long, bool)
FUNC d1d0 109 0 google_breakpad::WriteMinidump(int, int, void const*, unsigned long, bool, unsigned long, bool)
FUNC d2e0 36 0 google_breakpad::WriteMinidump(char const*, int, void const*, unsigned long, std::list<google_breakpad::MappingEntry, std::allocator<google_breakpad::MappingEntry> > const&, std::list<google_breakpad::AppMemory, std::allocator<google_breakpad::AppMemory> > const&, bool, unsigned long, bool)
FUNC d320 35 0 google_breakpad::WriteMinidump(int, int, void const*, unsigned long, std::list<google_breakpad::MappingEntry, std::allocator<google_breakpad::MappingEntry> > const&, std::list<google_breakpad::AppMemory, std::allocator<google_breakpad::AppMemory> > const&, bool, unsigned long, bool)
FUNC d360 34 0 google_breakpad::WriteMinidump(char const*, long, int, void const*, unsigned long, std::list<google_breakpad::MappingEntry, std::allocator<google_breakpad::MappingEntry> > const&, std::list<google_breakpad::AppMemory, std::allocator<google_breakpad::AppMemory> > const&, bool, unsigned long, bool)
FUNC d3a0 33 0 google_breakpad::WriteMinidump(int, long, int, void const*, unsigned long, std::list<google_breakpad::MappingEntry, std::allocator<google_breakpad::MappingEntry> > const&, std::list<google_breakpad::AppMemory, std::allocator<google_breakpad::AppMemory> > const&, bool, unsigned long, bool)
FUNC d3e0 481 0 google_breakpad::WriteMinidump(char const*, int, int)
FUNC d870 363 0 google_breakpad::WriteMinidump(char const*, std::list<google_breakpad::MappingEntry, std::allocator<google_breakpad::MappingEntry> > const&, std::list<google_breakpad::AppMemory, std::allocator<google_breakpad::AppMemory> > const&, google_breakpad::LinuxDumper*)
FUNC dbe0 150 0 google_breakpad::PageAllocator::Alloc(unsigned long)
FUNC dd30 22 0 google_breakpad::TypedMDRVA<unsigned int>::~TypedMDRVA()
FUNC dd60 22 0 google_breakpad::TypedMDRVA<MDRawContextAMD64>::~TypedMDRVA()
FUNC dd90 22 0 google_breakpad::TypedMDRVA<MDRawLinkMap64>::~TypedMDRVA()
FUNC ddc0 22 0 google_breakpad::TypedMDRVA<MDRawDebug64>::~TypedMDRVA()
FUNC ddf0 27c 0 std::vector<char, google_breakpad::PageStdAllocator<char> >::resize(unsigned long)
FUNC e070 273 0 void std::vector<MDMemoryDescriptor, google_breakpad::PageStdAllocator<MDMemoryDescriptor> >::_M_emplace_back_aux<MDMemoryDescriptor const&>(MDMemoryDescriptor const&)
FUNC e2f0 1db 0 std::vector<char, google_breakpad::PageStdAllocator<char> >::reserve(unsigned long)
FUNC e4d0 1a 0 google_breakpad::MinidumpFileWriter::MinidumpFileWriter()
FUNC e4f0 78 0 google_breakpad::MinidumpFileWriter::Open(char const*)
FUNC e570 2c 0 google_breakpad::MinidumpFileWriter::SetFile(int)
FUNC e5a0 5d 0 google_breakpad::MinidumpFileWriter::Close()
FUNC e600 15 0 google_breakpad::MinidumpFileWriter::~MinidumpFileWriter()
FUNC e620 be 0 google_breakpad::MinidumpFileWriter::Allocate(unsigned long)
FUNC e6e0 ff 0 google_breakpad::MinidumpFileWriter::Copy(unsigned int, void const*, long)
FUNC e7e0 d9 0 google_breakpad::MinidumpFileWriter::CopyStringToMDString(char const*, unsigned int, google_breakpad::TypedMDRVA<MDString>*)
FUNC e8c0 da 0 google_breakpad::MinidumpFileWriter::CopyStringToMDString(wchar_t const*, unsigned int, google_breakpad::TypedMDRVA<MDString>*)
FUNC e9a0 41 0 google_breakpad::UntypedMDRVA::Allocate(unsigned long)
FUNC e9f0 88 0 google_breakpad::UntypedMDRVA::Copy(unsigned int, void const*, unsigned long)
FUNC ea80 df 0 google_breakpad::MinidumpFileWriter::WriteMemory(void const*, unsigned long, MDMemoryDescriptor*)
FUNC eb60 5 0 google_breakpad::MinidumpFileWriter::WriteString(wchar_t const*, unsigned int, MDLocationDescriptor*)
FUNC eb70 5 0 google_breakpad::MinidumpFileWriter::WriteString(char const*, unsigned int, MDLocationDescriptor*)
FUNC eb80 22 0 google_breakpad::TypedMDRVA<MDString>::~TypedMDRVA()
FUNC ebb0 20b 0 bool google_breakpad::MinidumpFileWriter::WriteStringCore<wchar_t>(wchar_t const*, unsigned int, MDLocationDescriptor*)
FUNC edc0 20b 0 bool google_breakpad::MinidumpFileWriter::WriteStringCore<char>(char const*, unsigned int, MDLocationDescriptor*)
FUNC efd0 fc 0 std::vector<unsigned short, std::allocator<unsigned short> >::_M_default_append(unsigned long)
FUNC f0d0 b1 0 google_breakpad::UTF8ToUTF16Char(char const*, int, unsigned short*)
FUNC f190 7b 0 google_breakpad::UTF32ToUTF16Char(wchar_t, unsigned short*)
FUNC f210 160 0 google_breakpad::UTF16ToUTF8(std::vector<unsigned short, std::allocator<unsigned short> > const&, bool)
FUNC f370 13a 0 google_breakpad::UTF32ToUTF16(wchar_t const*, std::vector<unsigned short, std::allocator<unsigned short> >*)
FUNC f4b0 13a 0 google_breakpad::UTF8ToUTF16(char const*, std::vector<unsigned short, std::allocator<unsigned short> >*)
FUNC f5f0 283 0 std::vector<unsigned short, std::allocator<unsigned short> >::_M_fill_insert(__gnu_cxx::__normal_iterator<unsigned short*, std::vector<unsigned short, std::allocator<unsigned short> > >, unsigned long, unsigned short const&)
FUNC f880 1f 0 google_breakpad::IsValidElf(void const*)
FUNC f8a0 5 0 google_breakpad::ElfClass(void const*)
FUNC f8b0 44e 0 google_breakpad::FindElfSection(void const*, char const*, unsigned int, void const**, unsigned long*, int*)
FUNC fd00 287 0 google_breakpad::FindElfSegment(void const*, unsigned int, void const**, unsigned long*, int*)
FUNC ff90 134 0 google_breakpad::bytes_to_hex_string
FUNC 100d0 38 0 google_breakpad::FileID::FileID(char const*)
FUNC 10110 c7 0 google_breakpad::FileID::ConvertIdentifierToUUIDString(google_breakpad::wasteful_vector<unsigned char> const&)
FUNC 101e0 1c 0 google_breakpad::FileID::ConvertIdentifierToString(google_breakpad::wasteful_vector<unsigned char> const&)
FUNC 10200 259 0 google_breakpad::FileID::ElfFileIdentifierFromMappedFile(void const*, google_breakpad::wasteful_vector<unsigned char>&)
FUNC 10460 7c 0 google_breakpad::FileID::ElfFileIdentifier(google_breakpad::wasteful_vector<unsigned char>&)
FUNC 104e0 261 0 std::vector<unsigned char, google_breakpad::PageStdAllocator<unsigned char> >::_M_default_append(unsigned long)
FUNC 10750 73 0 CreateGUID(MDGUID*)
FUNC 107d0 b5 0 GUIDToString(MDGUID const*, char*, int)
FUNC 10890 16 0 GUIDGenerator::InitOnceImpl()
FUNC 108b0 1e 0 my_strlen
FUNC 108d0 46 0 my_strcmp
FUNC 10920 56 0 my_strncmp
FUNC 10980 4c 0 my_strtoui
FUNC 109d0 39 0 my_uint_len
FUNC 10a10 3c 0 my_uitos
FUNC 10a50 2b 0 my_strchr
FUNC 10a80 26 0 my_strrchr
FUNC 10ab0 2b 0 my_memchr
FUNC 10ae0 7c 0 my_read_hex_ptr
FUNC 10b60 3a 0 my_read_decimal_ptr
FUNC 10ba0 1f 0 my_memset
FUNC 10bc0 38 0 my_strlcpy
FUNC 10c00 3c 0 my_strlcat
FUNC 10c40 6c 0 my_isspace
FUNC 10cb0 10 0 google_breakpad::MemoryMappedFile::MemoryMappedFile()
FUNC 10cc0 4b 0 google_breakpad::MemoryMappedFile::Unmap()
FUNC 10d10 5 0 google_breakpad::MemoryMappedFile::~MemoryMappedFile()
FUNC 10d20 1b4 0 google_breakpad::MemoryMappedFile::Map(char const*, unsigned long)
FUNC 10ee0 14 0 google_breakpad::MemoryMappedFile::MemoryMappedFile(char const*, unsigned long)
FUNC 10f00 40 0 google_breakpad::SafeReadLink(char const*, char*, unsigned long)
FUNC 10f40 2 0 CrashGenerationClientImpl::~CrashGenerationClientImpl
FUNC 10f50 5 0 CrashGenerationClientImpl::~CrashGenerationClientImpl
FUNC 10f60 202 0 CrashGenerationClientImpl::RequestDump
FUNC 11170 23 0 google_breakpad::CrashGenerationClient::TryCreate(int)
FUNC 111a0 8 0 google_breakpad::ThreadInfo::GetInstructionPointer() const
FUNC 111b0 2ff 0 google_breakpad::ThreadInfo::FillCPUContext(MDRawContextAMD64*) const
FUNC 114b0 43 0 google_breakpad::ThreadInfo::GetGeneralPurposeRegisters(void**, unsigned long*)
FUNC 11500 46 0 google_breakpad::ThreadInfo::GetFloatingPointRegisters(void**, unsigned long*)
FUNC 11550 8 0 google_breakpad::UContextReader::GetStackPointer(ucontext const*)
FUNC 11560 8 0 google_breakpad::UContextReader::GetInstructionPointer(ucontext const*)
FUNC 11570 262 0 google_breakpad::UContextReader::FillCPUContext(MDRawContextAMD64*, ucontext const*, _libc_fpstate const*)
FUNC 117e0 c7 0 isLegalUTF8
FUNC 118b0 105 0 ConvertUTF32toUTF16
FUNC 119c0 f1 0 ConvertUTF16toUTF32
FUNC 11ac0 1ee 0 ConvertUTF16toUTF8
FUNC 11cb0 2b 0 isLegalUTF8Sequence
FUNC 11ce0 27f 0 ConvertUTF8toUTF16
FUNC 11f60 1af 0 ConvertUTF32toUTF8
FUNC 12110 2a7 0 ConvertUTF8toUTF32
PUBLIC 1598 0 _init
PUBLIC 19a0 0 google_breakpad::LineReader::PopLine(unsigned int) [clone .part.5]
PUBLIC 19c0 0 (anonymous namespace)::MinidumpWriter::~MinidumpWriter()
PUBLIC 19ec 0 google_breakpad::TypedMDRVA<MDRawDirectory>::CopyIndex(unsigned int, MDRawDirectory*) [clone .isra.36] [clone .part.37]
PUBLIC 1a0c 0 google_breakpad::TypedMDRVA<MDRawDirectory>::CopyIndex(unsigned int, MDRawDirectory*) [clone .isra.36]
PUBLIC 1a2a 0 google_breakpad::TypedMDRVA<unsigned int>::AllocateObjectAndArray(unsigned long, unsigned long) [clone .part.38]
PUBLIC 1a4a 0 google_breakpad::TypedMDRVA<unsigned int>::CopyIndexAfterObject(unsigned int, void const*, unsigned long) [clone .isra.39] [clone .part.40]
PUBLIC 1a6a 0 (anonymous namespace)::MinidumpWriter::MinidumpWriter(char const*, int, google_breakpad::ExceptionHandler::CrashContext const*, std::list<google_breakpad::MappingEntry, std::allocator<google_breakpad::MappingEntry> > const&, std::list<google_breakpad::AppMemory, std::allocator<google_breakpad::AppMemory> > const&, bool, unsigned long, bool, google_breakpad::LinuxDumper*) [clone .part.106]
PUBLIC 1a8a 0 (anonymous namespace)::MinidumpWriter::WriteFile(MDLocationDescriptor*, char const*)
PUBLIC 1c7c 0 (anonymous namespace)::MinidumpWriter::WriteProcFile(MDLocationDescriptor*, int, char const*)
PUBLIC 1ce4 0 google_breakpad::TypedMDRVA<MDString>::CopyIndexAfterObject(unsigned int, void const*, unsigned long) [clone .isra.6] [clone .part.7]
PUBLIC 1d04 0 google_breakpad::TypedMDRVA<MDString>::AllocateObjectAndArray(unsigned long, unsigned long) [clone .part.8]
PUBLIC 1d30 0 _start
PUBLIC 1d60 0 deregister_tm_clones
PUBLIC 1da0 0 register_tm_clones
PUBLIC 1de0 0 __do_global_dtors_aux
PUBLIC 1e00 0 frame_dummy
PUBLIC 1e26 0 dumpCallback(google_breakpad::MinidumpDescriptor const&, void*, bool)
PUBLIC 1e5f 0 buggy_function()
PUBLIC 1e77 0 main
PUBLIC 1fca 0 google_breakpad::MicrodumpExtraInfo::MicrodumpExtraInfo()
PUBLIC 2004 0 google_breakpad::MinidumpDescriptor::MinidumpDescriptor(std::string const&)
PUBLIC 20e4 0 google_breakpad::MinidumpDescriptor::path() const
PUBLIC 20f6 0 google_breakpad::MinidumpDescriptor::~MinidumpDescriptor()
PUBLIC 2130 0 google_breakpad::ExceptionHandler::InstallHandlersLocked()
PUBLIC 2260 0 google_breakpad::ExceptionHandler::RestoreHandlersLocked()
PUBLIC 22e0 0 google_breakpad::ExceptionHandler::~ExceptionHandler()
PUBLIC 26c0 0 google_breakpad::ExceptionHandler::SendContinueSignalToChild()
PUBLIC 2790 0 google_breakpad::ExceptionHandler::GenerateDump(google_breakpad::ExceptionHandler::CrashContext*)
PUBLIC 2c50 0 google_breakpad::ExceptionHandler::HandleSignal(int, siginfo_t*, void*)
PUBLIC 2e30 0 google_breakpad::ExceptionHandler::SignalHandler(int, siginfo_t*, void*)
PUBLIC 2ff0 0 google_breakpad::ExceptionHandler::SimulateSignalDelivery(int)
PUBLIC 3070 0 google_breakpad::ExceptionHandler::WaitForContinueSignal()
PUBLIC 3160 0 google_breakpad::ExceptionHandler::DoDump(int, void const*, unsigned long)
PUBLIC 3230 0 google_breakpad::ExceptionHandler::ThreadEntry(void*)
PUBLIC 3260 0 google_breakpad::ExceptionHandler::WriteMinidump()
PUBLIC 3410 0 google_breakpad::ExceptionHandler::AddMappingInfo(std::string const&, unsigned char const*, unsigned long, unsigned long, unsigned long)
PUBLIC 34f0 0 google_breakpad::ExceptionHandler::RegisterAppMemory(void*, unsigned long)
PUBLIC 3560 0 google_breakpad::ExceptionHandler::UnregisterAppMemory(void*)
PUBLIC 35b0 0 google_breakpad::ExceptionHandler::WriteMinidumpForChild(int, int, std::string const&, bool (*)(google_breakpad::MinidumpDescriptor const&, void*, bool), void*)
PUBLIC 37a0 0 google_breakpad::ExceptionHandler::ExceptionHandler(google_breakpad::MinidumpDescriptor const&, bool (*)(void*), bool (*)(google_breakpad::MinidumpDescriptor const&, void*, bool), void*, bool, int)
PUBLIC 3b40 0 google_breakpad::ExceptionHandler::WriteMinidump(std::string const&, bool (*)(google_breakpad::MinidumpDescriptor const&, void*, bool), void*)
PUBLIC 3d50 0 void std::vector<google_breakpad::ExceptionHandler*, std::allocator<google_breakpad::ExceptionHandler*> >::_M_emplace_back_aux<google_breakpad::ExceptionHandler*>(google_breakpad::ExceptionHandler*&&)
PUBLIC 3e50 0 std::string::_Rep::_M_dispose(std::allocator<char> const&) [clone .part.0]
PUBLIC 3e90 0 google_breakpad::MinidumpDescriptor::MinidumpDescriptor(google_breakpad::MinidumpDescriptor const&)
PUBLIC 3f40 0 google_breakpad::MinidumpDescriptor::UpdatePath()
PUBLIC 4250 0 google_breakpad::MinidumpDescriptor::operator=(google_breakpad::MinidumpDescriptor const&)
PUBLIC 4320 0 logger::write(char const*, unsigned long)
PUBLIC 4360 0 google_breakpad::WriteMicrodump(int, void const*, unsigned long, std::list<google_breakpad::MappingEntry, std::allocator<google_breakpad::MappingEntry> > const&, bool, unsigned long, bool, google_breakpad::MicrodumpExtraInfo const&)
PUBLIC 5e80 0 void std::vector<unsigned char, google_breakpad::PageStdAllocator<unsigned char> >::_M_range_insert<unsigned char const*>(__gnu_cxx::__normal_iterator<unsigned char*, std::vector<unsigned char, google_breakpad::PageStdAllocator<unsigned char> > >, unsigned char const*, unsigned char const*, std::forward_iterator_tag)
PUBLIC 6280 0 google_breakpad::LinuxDumper::LateInit()
PUBLIC 6290 0 google_breakpad::LinuxDumper::~LinuxDumper()
PUBLIC 6300 0 google_breakpad::LinuxDumper::~LinuxDumper()
PUBLIC 6320 0 google_breakpad::LinuxDumper::GetMappingAbsolutePath(google_breakpad::MappingInfo const&, char*) const
PUBLIC 6370 0 google_breakpad::(anonymous namespace)::ElfFileSoName(google_breakpad::LinuxDumper const&, google_breakpad::MappingInfo const&, char*, unsigned long)
PUBLIC 6510 0 google_breakpad::LinuxDumper::HandleDeletedFileInMapping(char*) const [clone .part.14]
PUBLIC 66c0 0 google_breakpad::LinuxDumper::GetMappingEffectiveNameAndPath(google_breakpad::MappingInfo const&, char*, unsigned long, char*, unsigned long)
PUBLIC 67b0 0 google_breakpad::LinuxDumper::ReadAuxv()
PUBLIC 68e0 0 google_breakpad::LinuxDumper::Init()
PUBLIC 6920 0 google_breakpad::LinuxDumper::StackHasPointerToMapping(unsigned char const*, unsigned long, unsigned long, google_breakpad::MappingInfo const&)
PUBLIC 6990 0 google_breakpad::LinuxDumper::FindMapping(void const*) const
PUBLIC 69e0 0 google_breakpad::LinuxDumper::GetStackInfo(void const**, unsigned long*, unsigned long)
PUBLIC 6a60 0 google_breakpad::LinuxDumper::FindMappingNoBias(unsigned long) const
PUBLIC 6ab0 0 google_breakpad::LinuxDumper::SanitizeStackCopy(unsigned char*, unsigned long, unsigned long, unsigned long)
PUBLIC 6cc0 0 google_breakpad::LinuxDumper::HandleDeletedFileInMapping(char*) const
PUBLIC 6d20 0 google_breakpad::LinuxDumper::ElfFileIdentifierForMapping(google_breakpad::MappingInfo const&, bool, unsigned int, google_breakpad::wasteful_vector<unsigned char>&)
PUBLIC 7060 0 google_breakpad::LinuxDumper::LinuxDumper(int, char const*)
PUBLIC 7660 0 google_breakpad::LinuxDumper::EnumerateMappings()
PUBLIC 81b0 0 std::vector<unsigned long, google_breakpad::PageStdAllocator<unsigned long> >::_M_default_append(unsigned long)
PUBLIC 8460 0 void std::vector<google_breakpad::MappingInfo*, google_breakpad::PageStdAllocator<google_breakpad::MappingInfo*> >::_M_emplace_back_aux<google_breakpad::MappingInfo* const&>(google_breakpad::MappingInfo* const&)
PUBLIC 86c0 0 google_breakpad::LinuxPtraceDumper::IsPostMortem() const
PUBLIC 86d0 0 google_breakpad::LinuxPtraceDumper::CopyFromProcess(void*, int, void const*, unsigned long)
PUBLIC 8860 0 google_breakpad::LinuxPtraceDumper::BuildProcPath(char*, int, char const*) const [clone .part.0]
PUBLIC 8910 0 google_breakpad::LinuxPtraceDumper::BuildProcPath(char*, int, char const*) const [clone .localalias.26]
PUBLIC 8940 0 google_breakpad::LinuxPtraceDumper::ThreadsResume()
PUBLIC 8a00 0 google_breakpad::LinuxPtraceDumper::ThreadsSuspend()
PUBLIC 8f20 0 google_breakpad::LinuxPtraceDumper::GetThreadInfoByIndex(unsigned long, google_breakpad::ThreadInfo*)
PUBLIC 9490 0 google_breakpad::LinuxPtraceDumper::LinuxPtraceDumper(int)
PUBLIC 94c0 0 google_breakpad::LinuxPtraceDumper::EnumerateThreads()
PUBLIC 9880 0 google_breakpad::LinuxPtraceDumper::~LinuxPtraceDumper()
PUBLIC 98a0 0 google_breakpad::LinuxPtraceDumper::~LinuxPtraceDumper()
PUBLIC 98c0 0 void std::vector<int, google_breakpad::PageStdAllocator<int> >::_M_emplace_back_aux<int const&>(int const&)
PUBLIC 9b10 0 (anonymous namespace)::MinidumpWriter::WriteThreadListStream(MDRawDirectory*)
PUBLIC a9a0 0 (anonymous namespace)::MinidumpWriter::Dump()
PUBLIC cc50 0 (anonymous namespace)::WriteMinidumpImpl(char const*, int, long, int, void const*, unsigned long, std::list<google_breakpad::MappingEntry, std::allocator<google_breakpad::MappingEntry> > const&, std::list<google_breakpad::AppMemory, std::allocator<google_breakpad::AppMemory> > const&, bool, unsigned long, bool)
PUBLIC d0c0 0 google_breakpad::WriteMinidump(char const*, int, void const*, unsigned long, bool, unsigned long, bool)
PUBLIC d1d0 0 google_breakpad::WriteMinidump(int, int, void const*, unsigned long, bool, unsigned long, bool)
PUBLIC d2e0 0 google_breakpad::WriteMinidump(char const*, int, void const*, unsigned long, std::list<google_breakpad::MappingEntry, std::allocator<google_breakpad::MappingEntry> > const&, std::list<google_breakpad::AppMemory, std::allocator<google_breakpad::AppMemory> > const&, bool, unsigned long, bool)
PUBLIC d320 0 google_breakpad::WriteMinidump(int, int, void const*, unsigned long, std::list<google_breakpad::MappingEntry, std::allocator<google_breakpad::MappingEntry> > const&, std::list<google_breakpad::AppMemory, std::allocator<google_breakpad::AppMemory> > const&, bool, unsigned long, bool)
PUBLIC d360 0 google_breakpad::WriteMinidump(char const*, long, int, void const*, unsigned long, std::list<google_breakpad::MappingEntry, std::allocator<google_breakpad::MappingEntry> > const&, std::list<google_breakpad::AppMemory, std::allocator<google_breakpad::AppMemory> > const&, bool, unsigned long, bool)
PUBLIC d3a0 0 google_breakpad::WriteMinidump(int, long, int, void const*, unsigned long, std::list<google_breakpad::MappingEntry, std::allocator<google_breakpad::MappingEntry> > const&, std::list<google_breakpad::AppMemory, std::allocator<google_breakpad::AppMemory> > const&, bool, unsigned long, bool)
PUBLIC d3e0 0 google_breakpad::WriteMinidump(char const*, int, int)
PUBLIC d870 0 google_breakpad::WriteMinidump(char const*, std::list<google_breakpad::MappingEntry, std::allocator<google_breakpad::MappingEntry> > const&, std::list<google_breakpad::AppMemory, std::allocator<google_breakpad::AppMemory> > const&, google_breakpad::LinuxDumper*)
PUBLIC dbe0 0 google_breakpad::PageAllocator::Alloc(unsigned long)
PUBLIC dd30 0 google_breakpad::TypedMDRVA<unsigned int>::~TypedMDRVA()
PUBLIC dd60 0 google_breakpad::TypedMDRVA<MDRawContextAMD64>::~TypedMDRVA()
PUBLIC dd90 0 google_breakpad::TypedMDRVA<MDRawLinkMap64>::~TypedMDRVA()
PUBLIC ddc0 0 google_breakpad::TypedMDRVA<MDRawDebug64>::~TypedMDRVA()
PUBLIC ddf0 0 std::vector<char, google_breakpad::PageStdAllocator<char> >::resize(unsigned long)
PUBLIC e070 0 void std::vector<MDMemoryDescriptor, google_breakpad::PageStdAllocator<MDMemoryDescriptor> >::_M_emplace_back_aux<MDMemoryDescriptor const&>(MDMemoryDescriptor const&)
PUBLIC e2f0 0 std::vector<char, google_breakpad::PageStdAllocator<char> >::reserve(unsigned long)
PUBLIC e4d0 0 google_breakpad::MinidumpFileWriter::MinidumpFileWriter()
PUBLIC e4f0 0 google_breakpad::MinidumpFileWriter::Open(char const*)
PUBLIC e570 0 google_breakpad::MinidumpFileWriter::SetFile(int)
PUBLIC e5a0 0 google_breakpad::MinidumpFileWriter::Close()
PUBLIC e600 0 google_breakpad::MinidumpFileWriter::~MinidumpFileWriter()
PUBLIC e620 0 google_breakpad::MinidumpFileWriter::Allocate(unsigned long)
PUBLIC e6e0 0 google_breakpad::MinidumpFileWriter::Copy(unsigned int, void const*, long)
PUBLIC e7e0 0 google_breakpad::MinidumpFileWriter::CopyStringToMDString(char const*, unsigned int, google_breakpad::TypedMDRVA<MDString>*)
PUBLIC e8c0 0 google_breakpad::MinidumpFileWriter::CopyStringToMDString(wchar_t const*, unsigned int, google_breakpad::TypedMDRVA<MDString>*)
PUBLIC e9a0 0 google_breakpad::UntypedMDRVA::Allocate(unsigned long)
PUBLIC e9f0 0 google_breakpad::UntypedMDRVA::Copy(unsigned int, void const*, unsigned long)
PUBLIC ea80 0 google_breakpad::MinidumpFileWriter::WriteMemory(void const*, unsigned long, MDMemoryDescriptor*)
PUBLIC eb60 0 google_breakpad::MinidumpFileWriter::WriteString(wchar_t const*, unsigned int, MDLocationDescriptor*)
PUBLIC eb70 0 google_breakpad::MinidumpFileWriter::WriteString(char const*, unsigned int, MDLocationDescriptor*)
PUBLIC eb80 0 google_breakpad::TypedMDRVA<MDString>::~TypedMDRVA()
PUBLIC ebb0 0 bool google_breakpad::MinidumpFileWriter::WriteStringCore<wchar_t>(wchar_t const*, unsigned int, MDLocationDescriptor*)
PUBLIC edc0 0 bool google_breakpad::MinidumpFileWriter::WriteStringCore<char>(char const*, unsigned int, MDLocationDescriptor*)
PUBLIC efd0 0 std::vector<unsigned short, std::allocator<unsigned short> >::_M_default_append(unsigned long) [clone .part.33]
PUBLIC f0d0 0 google_breakpad::UTF8ToUTF16Char(char const*, int, unsigned short*)
PUBLIC f190 0 google_breakpad::UTF32ToUTF16Char(wchar_t, unsigned short*)
PUBLIC f210 0 google_breakpad::UTF16ToUTF8(std::vector<unsigned short, std::allocator<unsigned short> > const&, bool)
PUBLIC f370 0 google_breakpad::UTF32ToUTF16(wchar_t const*, std::vector<unsigned short, std::allocator<unsigned short> >*)
PUBLIC f4b0 0 google_breakpad::UTF8ToUTF16(char const*, std::vector<unsigned short, std::allocator<unsigned short> >*)
PUBLIC f5f0 0 std::vector<unsigned short, std::allocator<unsigned short> >::_M_fill_insert(__gnu_cxx::__normal_iterator<unsigned short*, std::vector<unsigned short, std::allocator<unsigned short> > >, unsigned long, unsigned short const&)
PUBLIC f880 0 google_breakpad::IsValidElf(void const*)
PUBLIC f8a0 0 google_breakpad::ElfClass(void const*)
PUBLIC f8b0 0 google_breakpad::FindElfSection(void const*, char const*, unsigned int, void const**, unsigned long*, int*)
PUBLIC fd00 0 google_breakpad::FindElfSegment(void const*, unsigned int, void const**, unsigned long*, int*)
PUBLIC ff90 0 google_breakpad::bytes_to_hex_string(unsigned char const*, unsigned long)
PUBLIC 100d0 0 google_breakpad::FileID::FileID(char const*)
PUBLIC 10110 0 google_breakpad::FileID::ConvertIdentifierToUUIDString(google_breakpad::wasteful_vector<unsigned char> const&)
PUBLIC 101e0 0 google_breakpad::FileID::ConvertIdentifierToString(google_breakpad::wasteful_vector<unsigned char> const&)
PUBLIC 10200 0 google_breakpad::FileID::ElfFileIdentifierFromMappedFile(void const*, google_breakpad::wasteful_vector<unsigned char>&)
PUBLIC 10460 0 google_breakpad::FileID::ElfFileIdentifier(google_breakpad::wasteful_vector<unsigned char>&)
PUBLIC 104e0 0 std::vector<unsigned char, google_breakpad::PageStdAllocator<unsigned char> >::_M_default_append(unsigned long)
PUBLIC 10750 0 CreateGUID(MDGUID*)
PUBLIC 107d0 0 GUIDToString(MDGUID const*, char*, int)
PUBLIC 10890 0 GUIDGenerator::InitOnceImpl()
PUBLIC 108b0 0 my_strlen
PUBLIC 108d0 0 my_strcmp
PUBLIC 10920 0 my_strncmp
PUBLIC 10980 0 my_strtoui
PUBLIC 109d0 0 my_uint_len
PUBLIC 10a10 0 my_uitos
PUBLIC 10a50 0 my_strchr
PUBLIC 10a80 0 my_strrchr
PUBLIC 10ab0 0 my_memchr
PUBLIC 10ae0 0 my_read_hex_ptr
PUBLIC 10b60 0 my_read_decimal_ptr
PUBLIC 10ba0 0 my_memset
PUBLIC 10bc0 0 my_strlcpy
PUBLIC 10c00 0 my_strlcat
PUBLIC 10c40 0 my_isspace
PUBLIC 10cb0 0 google_breakpad::MemoryMappedFile::MemoryMappedFile()
PUBLIC 10cc0 0 google_breakpad::MemoryMappedFile::Unmap()
PUBLIC 10d10 0 google_breakpad::MemoryMappedFile::~MemoryMappedFile()
PUBLIC 10d20 0 google_breakpad::MemoryMappedFile::Map(char const*, unsigned long)
PUBLIC 10ee0 0 google_breakpad::MemoryMappedFile::MemoryMappedFile(char const*, unsigned long)
PUBLIC 10f00 0 google_breakpad::SafeReadLink(char const*, char*, unsigned long)
PUBLIC 10f40 0 google_breakpad::(anonymous namespace)::CrashGenerationClientImpl::~CrashGenerationClientImpl()
PUBLIC 10f50 0 google_breakpad::(anonymous namespace)::CrashGenerationClientImpl::~CrashGenerationClientImpl()
PUBLIC 10f60 0 google_breakpad::(anonymous namespace)::CrashGenerationClientImpl::RequestDump(void const*, unsigned long)
PUBLIC 11170 0 google_breakpad::CrashGenerationClient::TryCreate(int)
PUBLIC 111a0 0 google_breakpad::ThreadInfo::GetInstructionPointer() const
PUBLIC 111b0 0 google_breakpad::ThreadInfo::FillCPUContext(MDRawContextAMD64*) const
PUBLIC 114b0 0 google_breakpad::ThreadInfo::GetGeneralPurposeRegisters(void**, unsigned long*)
PUBLIC 11500 0 google_breakpad::ThreadInfo::GetFloatingPointRegisters(void**, unsigned long*)
PUBLIC 11550 0 google_breakpad::UContextReader::GetStackPointer(ucontext const*)
PUBLIC 11560 0 google_breakpad::UContextReader::GetInstructionPointer(ucontext const*)
PUBLIC 11570 0 google_breakpad::UContextReader::FillCPUContext(MDRawContextAMD64*, ucontext const*, _libc_fpstate const*)
PUBLIC 117e0 0 isLegalUTF8
PUBLIC 118b0 0 ConvertUTF32toUTF16
PUBLIC 119c0 0 ConvertUTF16toUTF32
PUBLIC 11ac0 0 ConvertUTF16toUTF8
PUBLIC 11cb0 0 isLegalUTF8Sequence
PUBLIC 11ce0 0 ConvertUTF8toUTF16
PUBLIC 11f60 0 ConvertUTF32toUTF8
PUBLIC 12110 0 ConvertUTF8toUTF32
PUBLIC 123c0 0 __libc_csu_init
PUBLIC 12430 0 __libc_csu_fini
PUBLIC 12434 0 _fini
STACK CFI INIT 1d30 2a .cfa: $rsp 8 + .ra: .cfa -8 + ^
STACK CFI INIT 15c0 3e0 .cfa: $rsp 16 + .ra: .cfa -8 + ^
STACK CFI 15c6 .cfa: $rsp 24 +
STACK CFI INIT 1fca 39 .cfa: $rsp 8 + .ra: .cfa -8 + ^
STACK CFI 1fcb $rbp: .cfa -16 + ^ .cfa: $rsp 16 +
STACK CFI 1fce .cfa: $rbp 16 +
STACK CFI 2002 .cfa: $rsp 8 +
STACK CFI INIT 2004 df .cfa: $rsp 8 + .ra: .cfa -8 + ^
STACK CFI 2005 $rbp: .cfa -16 + ^ .cfa: $rsp 16 +
STACK CFI 2008 .cfa: $rbp 16 +
STACK CFI 200d $rbx: .cfa -24 + ^
STACK CFI 20e2 .cfa: $rsp 8 +
STACK CFI INIT 20e4 12 .cfa: $rsp 8 + .ra: .cfa -8 + ^
STACK CFI 20e5 $rbp: .cfa -16 + ^ .cfa: $rsp 16 +
STACK CFI 20e8 .cfa: $rbp 16 +
STACK CFI 20f5 .cfa: $rsp 8 +
STACK CFI INIT 1e26 39 .cfa: $rsp 8 + .ra: .cfa -8 + ^
STACK CFI 1e27 $rbp: .cfa -16 + ^ .cfa: $rsp 16 +
STACK CFI 1e2a .cfa: $rbp 16 +
STACK CFI 1e5e .cfa: $rsp 8 +
STACK CFI INIT 1e5f 18 .cfa: $rsp 8 + .ra: .cfa -8 + ^
STACK CFI 1e60 $rbp: .cfa -16 + ^ .cfa: $rsp 16 +
STACK CFI 1e63 .cfa: $rbp 16 +
STACK CFI 1e76 .cfa: $rsp 8 +
STACK CFI INIT 20f6 2e .cfa: $rsp 8 + .ra: .cfa -8 + ^
STACK CFI 20f7 $rbp: .cfa -16 + ^ .cfa: $rsp 16 +
STACK CFI 20fa .cfa: $rbp 16 +
STACK CFI 2123 .cfa: $rsp 8 +
STACK CFI INIT 1e77 153 .cfa: $rsp 8 + .ra: .cfa -8 + ^
STACK CFI 1e78 $rbp: .cfa -16 + ^ .cfa: $rsp 16 +
STACK CFI 1e7b .cfa: $rbp 16 +
STACK CFI 1e83 $rbx: .cfa -24 + ^
STACK CFI 1fc9 .cfa: $rsp 8 +
STACK CFI INIT 2130 122 .cfa: $rsp 8 + .ra: .cfa -8 + ^
STACK CFI 2132 $r14: .cfa -16 + ^ .cfa: $rsp 16 +
STACK CFI 2134 $r13: .cfa -24 + ^ .cfa: $rsp 24 +
STACK CFI 2136 $r12: .cfa -32 + ^ .cfa: $rsp 32 +
STACK CFI 2137 $rbp: .cfa -40 + ^ .cfa: $rsp 40 +
STACK CFI 2138 $rbx: .cfa -48 + ^ .cfa: $rsp 48 +
STACK CFI 213f .cfa: $rsp 208 +
STACK CFI 2244 .cfa: $rsp 48 +
STACK CFI 2245 .cfa: $rsp 40 +
STACK CFI 2246 .cfa: $rsp 32 +
STACK CFI 2248 .cfa: $rsp 24 +
STACK CFI 224a .cfa: $rsp 16 +
STACK CFI 224c .cfa: $rsp 8 +
STACK CFI 224d .cfa: $rsp 208 +
STACK CFI INIT 2260 7c .cfa: $rsp 8 + .ra: .cfa -8 + ^
STACK CFI 226b $r13: .cfa -16 + ^ .cfa: $rsp 16 +
STACK CFI 226d $r12: .cfa -24 + ^ .cfa: $rsp 24 +
STACK CFI 2275 $rbp: .cfa -32 + ^ .cfa: $rsp 32 +
STACK CFI 2276 $rbx: .cfa -40 + ^ .cfa: $rsp 40 +
STACK CFI 2288 .cfa: $rsp 48 +
STACK CFI 22c1 .cfa: $rsp 40 +
STACK CFI 22c2 $rbx: $rbx .cfa: $rsp 32 +
STACK CFI 22c3 $rbp: $rbp .cfa: $rsp 24 +
STACK CFI 22c5 $r12: $r12 .cfa: $rsp 16 +
STACK CFI 22c7 $r13: $r13 .cfa: $rsp 8 +
STACK CFI 22d0 $r12: .cfa -24 + ^ $r13: .cfa -16 + ^ $rbp: .cfa -32 + ^ $rbx: .cfa -40 + ^ .cfa: $rsp 48 +
STACK CFI INIT 22e0 3d8 .cfa: $rsp 8 + .ra: .cfa -8 + ^
STACK CFI 22e2 $r12: .cfa -16 + ^ .cfa: $rsp 16 +
STACK CFI 22e3 $rbp: .cfa -24 + ^ .cfa: $rsp 24 +
STACK CFI 22e4 $rbx: .cfa -32 + ^ .cfa: $rsp 32 +
STACK CFI 22f2 .cfa: $rsp 96 +
STACK CFI 24a8 .cfa: $rsp 32 +
STACK CFI 24a9 .cfa: $rsp 24 +
STACK CFI 24aa .cfa: $rsp 16 +
STACK CFI 24ac .cfa: $rsp 8 +
STACK CFI 24b0 .cfa: $rsp 96 +
STACK CFI INIT 26c0 ce .cfa: $rsp 8 + .ra: .cfa -8 + ^
STACK CFI 26c2 $r15: .cfa -16 + ^ .cfa: $rsp 16 +
STACK CFI 26c4 $r14: .cfa -24 + ^ .cfa: $rsp 24 +
STACK CFI 26c9 $r13: .cfa -32 + ^ .cfa: $rsp 32 +
STACK CFI 26cb $r12: .cfa -40 + ^ .cfa: $rsp 40 +
STACK CFI 26d3 $rbp: .cfa -48 + ^ .cfa: $rsp 48 +
STACK CFI 26d4 $rbx: .cfa -56 + ^ .cfa: $rsp 56 +
STACK CFI 26e3 .cfa: $rsp 64 +
STACK CFI 2751 .cfa: $rsp 56 +
STACK CFI 275e .cfa: $rsp 48 +
STACK CFI 275f .cfa: $rsp 40 +
STACK CFI 2761 .cfa: $rsp 32 +
STACK CFI 2763 .cfa: $rsp 24 +
STACK CFI 2765 .cfa: $rsp 16 +
STACK CFI 2767 .cfa: $rsp 8 +
STACK CFI 2770 .cfa: $rsp 64 +
STACK CFI 2779 .cfa: $rsp 56 +
STACK CFI 277a .cfa: $rsp 48 +
STACK CFI 277b .cfa: $rsp 40 +
STACK CFI 277d .cfa: $rsp 32 +
STACK CFI 277f .cfa: $rsp 24 +
STACK CFI 2781 .cfa: $rsp 16 +
STACK CFI 2783 .cfa: $rsp 8 +
STACK CFI 2784 .cfa: $rsp 64 +
STACK CFI INIT 2790 4b2 .cfa: $rsp 8 + .ra: .cfa -8 + ^
STACK CFI 2792 $r15: .cfa -16 + ^ .cfa: $rsp 16 +
STACK CFI 2794 $r14: .cfa -24 + ^ .cfa: $rsp 24 +
STACK CFI 2796 $r13: .cfa -32 + ^ .cfa: $rsp 32 +
STACK CFI 2798 $r12: .cfa -40 + ^ .cfa: $rsp 40 +
STACK CFI 2799 $rbp: .cfa -48 + ^ .cfa: $rsp 48 +
STACK CFI 279a $rbx: .cfa -56 + ^ .cfa: $rsp 56 +
STACK CFI 27a4 .cfa: $rsp 144 +
STACK CFI 27e4 .cfa: $rsp 56 +
STACK CFI 27e5 .cfa: $rsp 48 +
STACK CFI 27e6 .cfa: $rsp 40 +
STACK CFI 27e8 .cfa: $rsp 32 +
STACK CFI 27ea .cfa: $rsp 24 +
STACK CFI 27ec .cfa: $rsp 16 +
STACK CFI 27ee .cfa: $rsp 8 +
STACK CFI 27f0 .cfa: $rsp 144 +
STACK CFI INIT 2c50 1d2 .cfa: $rsp 8 + .ra: .cfa -8 + ^
STACK CFI 2c52 $r13: .cfa -16 + ^ .cfa: $rsp 16 +
STACK CFI 2c54 $r12: .cfa -24 + ^ .cfa: $rsp 24 +
STACK CFI 2c58 $rbp: .cfa -32 + ^ .cfa: $rsp 32 +
STACK CFI 2c59 $rbx: .cfa -40 + ^ .cfa: $rsp 40 +
STACK CFI 2c63 .cfa: $rsp 48 +
STACK CFI 2c79 .cfa: $rsp 40 +
STACK CFI 2c7a .cfa: $rsp 32 +
STACK CFI 2c7b .cfa: $rsp 24 +
STACK CFI 2c7d .cfa: $rsp 16 +
STACK CFI 2c7f .cfa: $rsp 8 +
STACK CFI 2c80 .cfa: $rsp 48 +
STACK CFI 2de1 .cfa: $rsp 40 +
STACK CFI 2dec .cfa: $rsp 32 +
STACK CFI 2ded .cfa: $rsp 24 +
STACK CFI 2def .cfa: $rsp 16 +
STACK CFI 2df1 .cfa: $rsp 8 +
STACK CFI 2e00 .cfa: $rsp 48 +
STACK CFI INIT 2e30 1c0 .cfa: $rsp 8 + .ra: .cfa -8 + ^
STACK CFI 2e32 $r14: .cfa -16 + ^ .cfa: $rsp 16 +
STACK CFI 2e34 $r13: .cfa -24 + ^ .cfa: $rsp 24 +
STACK CFI 2e39 $r12: .cfa -32 + ^ .cfa: $rsp 32 +
STACK CFI 2e3a $rbp: .cfa -40 + ^ .cfa: $rsp 40 +
STACK CFI 2e3d $rbx: .cfa -48 + ^ .cfa: $rsp 48 +
STACK CFI 2e4e .cfa: $rsp 208 +
STACK CFI 2f2e .cfa: $rsp 48 +
STACK CFI 2f2f .cfa: $rsp 40 +
STACK CFI 2f30 .cfa: $rsp 32 +
STACK CFI 2f32 .cfa: $rsp 24 +
STACK CFI 2f34 .cfa: $rsp 16 +
STACK CFI 2f36 .cfa: $rsp 8 +
STACK CFI 2f40 .cfa: $rsp 208 +
STACK CFI INIT 2ff0 7f .cfa: $rsp 8 + .ra: .cfa -8 + ^
STACK CFI 2ff7 .cfa: $rsp 1104 +
STACK CFI 3069 .cfa: $rsp 8 +
STACK CFI 306a .cfa: $rsp 1104 +
STACK CFI INIT 3070 e3 .cfa: $rsp 8 + .ra: .cfa -8 + ^
STACK CFI 3072 $r15: .cfa -16 + ^ .cfa: $rsp 16 +
STACK CFI 3074 $r14: .cfa -24 + ^ .cfa: $rsp 24 +
STACK CFI 3079 $r13: .cfa -32 + ^ .cfa: $rsp 32 +
STACK CFI 307b $r12: .cfa -40 + ^ .cfa: $rsp 40 +
STACK CFI 307f $rbp: .cfa -48 + ^ .cfa: $rsp 48 +
STACK CFI 3080 $rbx: .cfa -56 + ^ .cfa: $rsp 56 +
STACK CFI 3089 .cfa: $rsp 80 +
STACK CFI 3139 .cfa: $rsp 56 +
STACK CFI 313a .cfa: $rsp 48 +
STACK CFI 313b .cfa: $rsp 40 +
STACK CFI 313d .cfa: $rsp 32 +
STACK CFI 313f .cfa: $rsp 24 +
STACK CFI 3141 .cfa: $rsp 16 +
STACK CFI 3143 .cfa: $rsp 8 +
STACK CFI 3144 .cfa: $rsp 80 +
STACK CFI INIT 3160 c2 .cfa: $rsp 8 + .ra: .cfa -8 + ^
STACK CFI 3162 $r12: .cfa -16 + ^ .cfa: $rsp 16 +
STACK CFI 3163 $rbp: .cfa -24 + ^ .cfa: $rsp 24 +
STACK CFI 3167 $rbx: .cfa -32 + ^ .cfa: $rsp 32 +
STACK CFI 319f .cfa: $rsp 40 +
STACK CFI 31a1 .cfa: $rsp 48 +
STACK CFI 31aa .cfa: $rsp 56 +
STACK CFI 31ab .cfa: $rsp 64 +
STACK CFI 31bc .cfa: $rsp 32 +
STACK CFI 31bd .cfa: $rsp 24 +
STACK CFI 31be .cfa: $rsp 16 +
STACK CFI 31c0 .cfa: $rsp 8 +
STACK CFI 31c8 .cfa: $rsp 32 +
STACK CFI 31d7 .cfa: $rsp 40 +
STACK CFI 31d9 .cfa: $rsp 48 +
STACK CFI 31e1 .cfa: $rsp 40 +
STACK CFI 31e2 .cfa: $rsp 32 +
STACK CFI 31e3 .cfa: $rsp 24 +
STACK CFI 31e4 .cfa: $rsp 16 +
STACK CFI 31e6 .cfa: $rsp 8 +
STACK CFI 31f0 .cfa: $rsp 32 +
STACK CFI 3200 .cfa: $rsp 40 +
STACK CFI 3202 .cfa: $rsp 48 +
STACK CFI 320b .cfa: $rsp 56 +
STACK CFI 320c .cfa: $rsp 64 +
STACK CFI 321d .cfa: $rsp 32 +
STACK CFI 321e .cfa: $rsp 24 +
STACK CFI 321f .cfa: $rsp 16 +
STACK CFI 3221 .cfa: $rsp 8 +
STACK CFI INIT 3230 28 .cfa: $rsp 8 + .ra: .cfa -8 + ^
STACK CFI 3231 $rbx: .cfa -16 + ^ .cfa: $rsp 16 +
STACK CFI 3257 .cfa: $rsp 8 +
STACK CFI INIT 3260 1ad .cfa: $rsp 8 + .ra: .cfa -8 + ^
STACK CFI 3261 $rbx: .cfa -16 + ^ .cfa: $rsp 16 +
STACK CFI 3268 .cfa: $rsp 1632 +
STACK CFI 32f5 .cfa: $rsp 16 +
STACK CFI 32f6 .cfa: $rsp 8 +
STACK CFI 3300 .cfa: $rsp 1632 +
STACK CFI INIT 3410 d7 .cfa: $rsp 8 + .ra: .cfa -8 + ^
STACK CFI 3412 $r12: .cfa -16 + ^ .cfa: $rsp 16 +
STACK CFI 3413 $rbp: .cfa -24 + ^ .cfa: $rsp 24 +
STACK CFI 3417 $rbx: .cfa -32 + ^ .cfa: $rsp 32 +
STACK CFI 3426 .cfa: $rsp 656 +
STACK CFI 34cf .cfa: $rsp 32 +
STACK CFI 34da .cfa: $rsp 24 +
STACK CFI 34db .cfa: $rsp 16 +
STACK CFI 34dd .cfa: $rsp 8 +
STACK CFI 34e2 .cfa: $rsp 656 +
STACK CFI INIT 34f0 6d .cfa: $rsp 8 + .ra: .cfa -8 + ^
STACK CFI 34f2 $r12: .cfa -16 + ^ .cfa: $rsp 16 +
STACK CFI 34f3 $rbp: .cfa -24 + ^ .cfa: $rsp 24 +
STACK CFI 34fb $rbx: .cfa -32 + ^ .cfa: $rsp 32 +
STACK CFI 354c .cfa: $rsp 24 +
STACK CFI 354d .cfa: $rsp 16 +
STACK CFI 354f .cfa: $rsp 8 +
STACK CFI 3558 .cfa: $rsp 32 +
STACK CFI 3559 .cfa: $rsp 24 +
STACK CFI 355a .cfa: $rsp 16 +
STACK CFI 355c .cfa: $rsp 8 +
STACK CFI INIT 3560 41 .cfa: $rsp 8 + .ra: .cfa -8 + ^
STACK CFI 3561 $rbx: .cfa -16 + ^ .cfa: $rsp 16 +
STACK CFI 3587 .cfa: $rsp 8 +
STACK CFI 3590 .cfa: $rsp 16 +
STACK CFI 359c .cfa: $rsp 8 +
STACK CFI INIT 35b0 1ec .cfa: $rsp 8 + .ra: .cfa -8 + ^
STACK CFI 35b2 $r15: .cfa -16 + ^ .cfa: $rsp 16 +
STACK CFI 35b4 $r14: .cfa -24 + ^ .cfa: $rsp 24 +
STACK CFI 35b9 $r13: .cfa -32 + ^ .cfa: $rsp 32 +
STACK CFI 35bb $r12: .cfa -40 + ^ .cfa: $rsp 40 +
STACK CFI 35bf $rbp: .cfa -48 + ^ .cfa: $rsp 48 +
STACK CFI 35c0 $rbx: .cfa -56 + ^ .cfa: $rsp 56 +
STACK CFI 35d0 .cfa: $rsp 192 +
STACK CFI 36d5 .cfa: $rsp 56 +
STACK CFI 36d6 .cfa: $rsp 48 +
STACK CFI 36d7 .cfa: $rsp 40 +
STACK CFI 36d9 .cfa: $rsp 32 +
STACK CFI 36db .cfa: $rsp 24 +
STACK CFI 36dd .cfa: $rsp 16 +
STACK CFI 36df .cfa: $rsp 8 +
STACK CFI 36e0 .cfa: $rsp 192 +
STACK CFI INIT 3d50 f4 .cfa: $rsp 8 + .ra: .cfa -8 + ^
STACK CFI 3d52 $r13: .cfa -16 + ^ .cfa: $rsp 16 +
STACK CFI 3d54 $r12: .cfa -24 + ^ .cfa: $rsp 24 +
STACK CFI 3d55 $rbp: .cfa -32 + ^ .cfa: $rsp 32 +
STACK CFI 3d56 $rbx: .cfa -40 + ^ .cfa: $rsp 40 +
STACK CFI 3d5d .cfa: $rsp 64 +
STACK CFI 3de8 .cfa: $rsp 40 +
STACK CFI 3de9 .cfa: $rsp 32 +
STACK CFI 3dea .cfa: $rsp 24 +
STACK CFI 3dec .cfa: $rsp 16 +
STACK CFI 3dee .cfa: $rsp 8 +
STACK CFI 3df0 .cfa: $rsp 64 +
STACK CFI INIT 37a0 396 .cfa: $rsp 8 + .ra: .cfa -8 + ^
STACK CFI 37a2 $r15: .cfa -16 + ^ .cfa: $rsp 16 +
STACK CFI 37a4 $r14: .cfa -24 + ^ .cfa: $rsp 24 +
STACK CFI 37a9 $r13: .cfa -32 + ^ .cfa: $rsp 32 +
STACK CFI 37af $r12: .cfa -40 + ^ .cfa: $rsp 40 +
STACK CFI 37b0 $rbp: .cfa -48 + ^ .cfa: $rsp 48 +
STACK CFI 37b1 $rbx: .cfa -56 + ^ .cfa: $rsp 56 +
STACK CFI 37b8 .cfa: $rsp 80 +
STACK CFI 38ec .cfa: $rsp 56 +
STACK CFI 38ed .cfa: $rsp 48 +
STACK CFI 38ee .cfa: $rsp 40 +
STACK CFI 38f0 .cfa: $rsp 32 +
STACK CFI 38f2 .cfa: $rsp 24 +
STACK CFI 38f4 .cfa: $rsp 16 +
STACK CFI 38f6 .cfa: $rsp 8 +
STACK CFI 3900 .cfa: $rsp 80 +
STACK CFI INIT 3b40 20f .cfa: $rsp 8 + .ra: .cfa -8 + ^
STACK CFI 3b41 $rbp: .cfa -16 + ^ .cfa: $rsp 16 +
STACK CFI 3b44 .cfa: $rbp 16 +
STACK CFI 3b4c $r12: .cfa -48 + ^ $r13: .cfa -40 + ^ $r14: .cfa -32 + ^ $r15: .cfa -24 + ^
STACK CFI 3b6c $rbx: .cfa -56 + ^
STACK CFI 3c8e .cfa: $rsp 8 +
STACK CFI 3c90 .cfa: $rbp 16 +
STACK CFI INIT 3e50 32 .cfa: $rsp 8 + .ra: .cfa -8 + ^
STACK CFI INIT 3e90 ab .cfa: $rsp 8 + .ra: .cfa -8 + ^
STACK CFI 3e91 $rbp: .cfa -16 + ^ .cfa: $rsp 16 +
STACK CFI 3e92 $rbx: .cfa -24 + ^ .cfa: $rsp 24 +
STACK CFI 3ea4 .cfa: $rsp 32 +
STACK CFI 3f19 .cfa: $rsp 24 +
STACK CFI 3f1a .cfa: $rsp 16 +
STACK CFI 3f1b .cfa: $rsp 8 +
STACK CFI 3f1c .cfa: $rsp 32 +
STACK CFI INIT 3f40 30c .cfa: $rsp 8 + .ra: .cfa -8 + ^
STACK CFI 3f42 $r13: .cfa -16 + ^ .cfa: $rsp 16 +
STACK CFI 3f44 $r12: .cfa -24 + ^ .cfa: $rsp 24 +
STACK CFI 3f45 $rbp: .cfa -32 + ^ .cfa: $rsp 32 +
STACK CFI 3f46 $rbx: .cfa -40 + ^ .cfa: $rsp 40 +
STACK CFI 3f50 .cfa: $rsp 176 +
STACK CFI 40e5 .cfa: $rsp 40 +
STACK CFI 40e6 .cfa: $rsp 32 +
STACK CFI 40e7 .cfa: $rsp 24 +
STACK CFI 40e9 .cfa: $rsp 16 +
STACK CFI 40eb .cfa: $rsp 8 +
STACK CFI 40f0 .cfa: $rsp 176 +
STACK CFI INIT 4250 c6 .cfa: $rsp 8 + .ra: .cfa -8 + ^
STACK CFI 4251 $rbp: .cfa -16 + ^ .cfa: $rsp 16 +
STACK CFI 4252 $rbx: .cfa -24 + ^ .cfa: $rsp 24 +
STACK CFI 4259 .cfa: $rsp 32 +
STACK CFI 42f1 .cfa: $rsp 24 +
STACK CFI 42f5 .cfa: $rsp 16 +
STACK CFI 42f6 .cfa: $rsp 8 +
STACK CFI 42f7 .cfa: $rsp 32 +
STACK CFI INIT 4320 34 .cfa: $rsp 8 + .ra: .cfa -8 + ^
STACK CFI 432c $rbx: .cfa -16 + ^ .cfa: $rsp 16 +
STACK CFI 4353 .cfa: $rsp 8 +
STACK CFI INIT 5e80 3f3 .cfa: $rsp 8 + .ra: .cfa -8 + ^
STACK CFI 5e8b $r15: .cfa -16 + ^ .cfa: $rsp 16 +
STACK CFI 5e8d $r14: .cfa -24 + ^ .cfa: $rsp 24 +
STACK CFI 5e92 $r13: .cfa -32 + ^ .cfa: $rsp 32 +
STACK CFI 5e94 $r12: .cfa -40 + ^ .cfa: $rsp 40 +
STACK CFI 5e98 $rbp: .cfa -48 + ^ .cfa: $rsp 48 +
STACK CFI 5e99 $rbx: .cfa -56 + ^ .cfa: $rsp 56 +
STACK CFI 5ea9 .cfa: $rsp 96 +
STACK CFI 5f1c .cfa: $rsp 56 +
STACK CFI 5f1d $rbx: $rbx .cfa: $rsp 48 +
STACK CFI 5f1e $rbp: $rbp .cfa: $rsp 40 +
STACK CFI 5f20 $r12: $r12 .cfa: $rsp 32 +
STACK CFI 5f22 $r13: $r13 .cfa: $rsp 24 +
STACK CFI 5f24 $r14: $r14 .cfa: $rsp 16 +
STACK CFI 5f26 $r15: $r15 .cfa: $rsp 8 +
STACK CFI 5f30 $r12: .cfa -40 + ^ $r13: .cfa -32 + ^ $r14: .cfa -24 + ^ $r15: .cfa -16 + ^ $rbp: .cfa -48 + ^ $rbx: .cfa -56 + ^ .cfa: $rsp 96 +
STACK CFI 5fa0 .cfa: $rsp 56 +
STACK CFI 5fa7 $rbx: $rbx .cfa: $rsp 48 +
STACK CFI 5fa8 $rbp: $rbp .cfa: $rsp 40 +
STACK CFI 5faa $r12: $r12 .cfa: $rsp 32 +
STACK CFI 5fac $r13: $r13 .cfa: $rsp 24 +
STACK CFI 5fae $r14: $r14 .cfa: $rsp 16 +
STACK CFI 5fb0 $r15: $r15 .cfa: $rsp 8 +
STACK CFI 5fb8 $r12: .cfa -40 + ^ $r13: .cfa -32 + ^ $r14: .cfa -24 + ^ $r15: .cfa -16 + ^ $rbp: .cfa -48 + ^ $rbx: .cfa -56 + ^ .cfa: $rsp 96 +
STACK CFI 60a6 .cfa: $rsp 56 +
STACK CFI 60a7 $rbx: $rbx .cfa: $rsp 48 +
STACK CFI 60a8 $rbp: $rbp .cfa: $rsp 40 +
STACK CFI 60aa $r12: $r12 .cfa: $rsp 32 +
STACK CFI 60ac $r13: $r13 .cfa: $rsp 24 +
STACK CFI 60ae $r14: $r14 .cfa: $rsp 16 +
STACK CFI 60b0 $r15: $r15 .cfa: $rsp 8 +
STACK CFI 60b8 $r12: .cfa -40 + ^ $r13: .cfa -32 + ^ $r14: .cfa -24 + ^ $r15: .cfa -16 + ^ $rbp: .cfa -48 + ^ $rbx: .cfa -56 + ^ .cfa: $rsp 96 +
STACK CFI INIT 4360 1b18 .cfa: $rsp 8 + .ra: .cfa -8 + ^
STACK CFI 4361 $rbp: .cfa -16 + ^ .cfa: $rsp 16 +
STACK CFI 4364 .cfa: $rbp 16 +
STACK CFI 436c $r12: .cfa -48 + ^ $r13: .cfa -40 + ^ $r14: .cfa -32 + ^ $r15: .cfa -24 + ^
STACK CFI 437f $rbx: .cfa -56 + ^
STACK CFI 4420 .cfa: $rsp 8 +
STACK CFI 4428 .cfa: $rbp 16 +
STACK CFI INIT 6280 6 .cfa: $rsp 8 + .ra: .cfa -8 + ^
STACK CFI INIT 19a0 20 .cfa: $rsp 8 + .ra: .cfa -8 + ^
STACK CFI 19a8 .cfa: $rsp 16 +
STACK CFI INIT 6290 67 .cfa: $rsp 8 + .ra: .cfa -8 + ^
STACK CFI 6292 $r13: .cfa -16 + ^ .cfa: $rsp 16 +
STACK CFI 6294 $r12: .cfa -24 + ^ .cfa: $rsp 24 +
STACK CFI 6298 $rbp: .cfa -32 + ^ .cfa: $rsp 32 +
STACK CFI 6299 $rbx: .cfa -40 + ^ .cfa: $rsp 40 +
STACK CFI 62a2 .cfa: $rsp 48 +
STACK CFI 62f0 .cfa: $rsp 40 +
STACK CFI 62f1 .cfa: $rsp 32 +
STACK CFI 62f2 .cfa: $rsp 24 +
STACK CFI 62f4 .cfa: $rsp 16 +
STACK CFI 62f6 .cfa: $rsp 8 +
STACK CFI INIT 6300 12 .cfa: $rsp 8 + .ra: .cfa -8 + ^
STACK CFI 6301 $rbx: .cfa -16 + ^ .cfa: $rsp 16 +
STACK CFI 630d .cfa: $rsp 8 +
STACK CFI INIT 6320 4a .cfa: $rsp 8 + .ra: .cfa -8 + ^
STACK CFI 6321 $rbp: .cfa -16 + ^ .cfa: $rsp 16 +
STACK CFI 6322 $rbx: .cfa -24 + ^ .cfa: $rsp 24 +
STACK CFI 6331 .cfa: $rsp 32 +
STACK CFI 6365 .cfa: $rsp 24 +
STACK CFI 6368 .cfa: $rsp 16 +
STACK CFI 6369 .cfa: $rsp 8 +
STACK CFI INIT 6370 19f .cfa: $rsp 8 + .ra: .cfa -8 + ^
STACK CFI 6372 $r14: .cfa -16 + ^ .cfa: $rsp 16 +
STACK CFI 6374 $r13: .cfa -24 + ^ .cfa: $rsp 24 +
STACK CFI 6379 $r12: .cfa -32 + ^ .cfa: $rsp 32 +
STACK CFI 637a $rbp: .cfa -40 + ^ .cfa: $rsp 40 +
STACK CFI 637f $rbx: .cfa -48 + ^ .cfa: $rsp 48 +
STACK CFI 639b .cfa: $rsp 4224 +
STACK CFI 63d9 .cfa: $rsp 48 +
STACK CFI 63da .cfa: $rsp 40 +
STACK CFI 63db .cfa: $rsp 32 +
STACK CFI 63dd .cfa: $rsp 24 +
STACK CFI 63df .cfa: $rsp 16 +
STACK CFI 63e1 .cfa: $rsp 8 +
STACK CFI 63e8 .cfa: $rsp 4224 +
STACK CFI INIT 6510 1a7 .cfa: $rsp 8 + .ra: .cfa -8 + ^
STACK CFI 6512 $r14: .cfa -16 + ^ .cfa: $rsp 16 +
STACK CFI 6514 $r13: .cfa -24 + ^ .cfa: $rsp 24 +
STACK CFI 651d $r12: .cfa -32 + ^ .cfa: $rsp 32 +
STACK CFI 651e $rbp: .cfa -40 + ^ .cfa: $rsp 40 +
STACK CFI 6522 $rbx: .cfa -48 + ^ .cfa: $rsp 48 +
STACK CFI 652c .cfa: $rsp 5008 +
STACK CFI 6579 .cfa: $rsp 48 +
STACK CFI 657a .cfa: $rsp 40 +
STACK CFI 657b .cfa: $rsp 32 +
STACK CFI 657d .cfa: $rsp 24 +
STACK CFI 657f .cfa: $rsp 16 +
STACK CFI 6581 .cfa: $rsp 8 +
STACK CFI 6588 .cfa: $rsp 5008 +
STACK CFI INIT 66c0 e6 .cfa: $rsp 8 + .ra: .cfa -8 + ^
STACK CFI 66c2 $r15: .cfa -16 + ^ .cfa: $rsp 16 +
STACK CFI 66c4 $r14: .cfa -24 + ^ .cfa: $rsp 24 +
STACK CFI 66c9 $r13: .cfa -32 + ^ .cfa: $rsp 32 +
STACK CFI 66cb $r12: .cfa -40 + ^ .cfa: $rsp 40 +
STACK CFI 66cf $rbp: .cfa -48 + ^ .cfa: $rsp 48 +
STACK CFI 66d0 $rbx: .cfa -56 + ^ .cfa: $rsp 56 +
STACK CFI 66e1 .cfa: $rsp 64 +
STACK CFI 671b .cfa: $rsp 56 +
STACK CFI 6722 .cfa: $rsp 48 +
STACK CFI 6723 .cfa: $rsp 40 +
STACK CFI 6725 .cfa: $rsp 32 +
STACK CFI 6727 .cfa: $rsp 24 +
STACK CFI 6729 .cfa: $rsp 16 +
STACK CFI 672b .cfa: $rsp 8 +
STACK CFI 6730 .cfa: $rsp 64 +
STACK CFI 6766 .cfa: $rsp 56 +
STACK CFI 6767 .cfa: $rsp 48 +
STACK CFI 6768 .cfa: $rsp 40 +
STACK CFI 676a .cfa: $rsp 32 +
STACK CFI 676c .cfa: $rsp 24 +
STACK CFI 676e .cfa: $rsp 16 +
STACK CFI 6770 .cfa: $rsp 8 +
STACK CFI 6778 .cfa: $rsp 64 +
STACK CFI 678e .cfa: $rsp 56 +
STACK CFI 6798 .cfa: $rsp 48 +
STACK CFI 6799 .cfa: $rsp 40 +
STACK CFI 679b .cfa: $rsp 32 +
STACK CFI 679d .cfa: $rsp 24 +
STACK CFI 679f .cfa: $rsp 16 +
STACK CFI 67a1 .cfa: $rsp 8 +
STACK CFI INIT 67b0 129 .cfa: $rsp 8 + .ra: .cfa -8 + ^
STACK CFI 67b2 $r13: .cfa -16 + ^ .cfa: $rsp 16 +
STACK CFI 67b4 $r12: .cfa -24 + ^ .cfa: $rsp 24 +
STACK CFI 67b8 $rbp: .cfa -32 + ^ .cfa: $rsp 32 +
STACK CFI 67b9 $rbx: .cfa -40 + ^ .cfa: $rsp 40 +
STACK CFI 67c7 .cfa: $rsp 336 +
STACK CFI 6895 .cfa: $rsp 40 +
STACK CFI 6896 .cfa: $rsp 32 +
STACK CFI 6897 .cfa: $rsp 24 +
STACK CFI 6899 .cfa: $rsp 16 +
STACK CFI 689b .cfa: $rsp 8 +
STACK CFI 68a0 .cfa: $rsp 336 +
STACK CFI INIT 68e0 32 .cfa: $rsp 8 + .ra: .cfa -8 + ^
STACK CFI 68e1 $rbx: .cfa -16 + ^ .cfa: $rsp 16 +
STACK CFI 68f0 .cfa: $rsp 8 +
STACK CFI 68f8 .cfa: $rsp 16 +
STACK CFI 690c .cfa: $rsp 8 +
STACK CFI INIT 6920 68 .cfa: $rsp 8 + .ra: .cfa -8 + ^
STACK CFI INIT 6990 4b .cfa: $rsp 8 + .ra: .cfa -8 + ^
STACK CFI INIT 69e0 7d .cfa: $rsp 8 + .ra: .cfa -8 + ^
STACK CFI 69e2 $r13: .cfa -16 + ^ .cfa: $rsp 16 +
STACK CFI 69e4 $r12: .cfa -24 + ^ .cfa: $rsp 24 +
STACK CFI 69e8 $rbp: .cfa -32 + ^ .cfa: $rsp 32 +
STACK CFI 69e9 $rbx: .cfa -40 + ^ .cfa: $rsp 40 +
STACK CFI 69f6 .cfa: $rsp 48 +
STACK CFI 6a40 .cfa: $rsp 40 +
STACK CFI 6a41 .cfa: $rsp 32 +
STACK CFI 6a42 .cfa: $rsp 24 +
STACK CFI 6a44 .cfa: $rsp 16 +
STACK CFI 6a46 .cfa: $rsp 8 +
STACK CFI 6a50 .cfa: $rsp 48 +
STACK CFI 6a54 .cfa: $rsp 40 +
STACK CFI 6a57 .cfa: $rsp 32 +
STACK CFI 6a58 .cfa: $rsp 24 +
STACK CFI 6a5a .cfa: $rsp 16 +
STACK CFI 6a5c .cfa: $rsp 8 +
STACK CFI INIT 6a60 43 .cfa: $rsp 8 + .ra: .cfa -8 + ^
STACK CFI INIT 6ab0 20c .cfa: $rsp 8 + .ra: .cfa -8 + ^
STACK CFI 6ab2 $r15: .cfa -16 + ^ .cfa: $rsp 16 +
STACK CFI 6ab4 $r14: .cfa -24 + ^ .cfa: $rsp 24 +
STACK CFI 6ab6 $r13: .cfa -32 + ^ .cfa: $rsp 32 +
STACK CFI 6ab8 $r12: .cfa -40 + ^ .cfa: $rsp 40 +
STACK CFI 6abc $rbp: .cfa -48 + ^ .cfa: $rsp 48 +
STACK CFI 6abd $rbx: .cfa -56 + ^ .cfa: $rsp 56 +
STACK CFI 6ad0 .cfa: $rsp 352 +
STACK CFI 6c5d .cfa: $rsp 56 +
STACK CFI 6c5e .cfa: $rsp 48 +
STACK CFI 6c5f .cfa: $rsp 40 +
STACK CFI 6c61 .cfa: $rsp 32 +
STACK CFI 6c63 .cfa: $rsp 24 +
STACK CFI 6c65 .cfa: $rsp 16 +
STACK CFI 6c67 .cfa: $rsp 8 +
STACK CFI 6c70 .cfa: $rsp 352 +
STACK CFI INIT 6cc0 53 .cfa: $rsp 8 + .ra: .cfa -8 + ^
STACK CFI 6cc1 $rbp: .cfa -16 + ^ .cfa: $rsp 16 +
STACK CFI 6cc2 $rbx: .cfa -24 + ^ .cfa: $rsp 24 +
STACK CFI 6ccf .cfa: $rsp 32 +
STACK CFI 6cde .cfa: $rsp 24 +
STACK CFI 6ce1 .cfa: $rsp 16 +
STACK CFI 6ce2 .cfa: $rsp 8 +
STACK CFI 6ce8 .cfa: $rsp 32 +
STACK CFI 6d06 .cfa: $rsp 24 +
STACK CFI 6d0d .cfa: $rsp 16 +
STACK CFI 6d0e .cfa: $rsp 8 +
STACK CFI INIT 6d20 335 .cfa: $rsp 8 + .ra: .cfa -8 + ^
STACK CFI 6d22 $r15: .cfa -16 + ^ .cfa: $rsp 16 +
STACK CFI 6d24 $r14: .cfa -24 + ^ .cfa: $rsp 24 +
STACK CFI 6d29 $r13: .cfa -32 + ^ .cfa: $rsp 32 +
STACK CFI 6d2b $r12: .cfa -40 + ^ .cfa: $rsp 40 +
STACK CFI 6d2f $rbp: .cfa -48 + ^ .cfa: $rsp 48 +
STACK CFI 6d30 $rbx: .cfa -56 + ^ .cfa: $rsp 56 +
STACK CFI 6d3f .cfa: $rsp 4208 +
STACK CFI 6db3 .cfa: $rsp 56 +
STACK CFI 6db4 .cfa: $rsp 48 +
STACK CFI 6db5 .cfa: $rsp 40 +
STACK CFI 6db7 .cfa: $rsp 32 +
STACK CFI 6db9 .cfa: $rsp 24 +
STACK CFI 6dbb .cfa: $rsp 16 +
STACK CFI 6dbd .cfa: $rsp 8 +
STACK CFI 6dc0 .cfa: $rsp 4208 +
STACK CFI INIT 81b0 2a9 .cfa: $rsp 8 + .ra: .cfa -8 + ^
STACK CFI 8202 $r15: .cfa -16 + ^ .cfa: $rsp 16 +
STACK CFI 8204 $r14: .cfa -24 + ^ .cfa: $rsp 24 +
STACK CFI 8209 $r13: .cfa -32 + ^ .cfa: $rsp 32 +
STACK CFI 820b $r12: .cfa -40 + ^ .cfa: $rsp 40 +
STACK CFI 8216 $rbp: .cfa -48 + ^ .cfa: $rsp 48 +
STACK CFI 8217 $rbx: .cfa -56 + ^ .cfa: $rsp 56 +
STACK CFI 8224 .cfa: $rsp 80 +
STACK CFI 82dd .cfa: $rsp 56 +
STACK CFI 82de $rbx: $rbx .cfa: $rsp 48 +
STACK CFI 82df $rbp: $rbp .cfa: $rsp 40 +
STACK CFI 82e1 $r12: $r12 .cfa: $rsp 32 +
STACK CFI 82e3 $r13: $r13 .cfa: $rsp 24 +
STACK CFI 82e5 $r14: $r14 .cfa: $rsp 16 +
STACK CFI 82e7 $r15: $r15 .cfa: $rsp 8 +
STACK CFI 82f0 $r12: .cfa -40 + ^ $r13: .cfa -32 + ^ $r14: .cfa -24 + ^ $r15: .cfa -16 + ^ $rbp: .cfa -48 + ^ $rbx: .cfa -56 + ^ .cfa: $rsp 80 +
STACK CFI INIT 7060 5ff .cfa: $rsp 8 + .ra: .cfa -8 + ^
STACK CFI 7062 $r15: .cfa -16 + ^ .cfa: $rsp 16 +
STACK CFI 7064 $r14: .cfa -24 + ^ .cfa: $rsp 24 +
STACK CFI 706d $r13: .cfa -32 + ^ .cfa: $rsp 32 +
STACK CFI 706f $r12: .cfa -40 + ^ .cfa: $rsp 40 +
STACK CFI 7076 $rbp: .cfa -48 + ^ .cfa: $rsp 48 +
STACK CFI 7077 $rbx: .cfa -56 + ^ .cfa: $rsp 56 +
STACK CFI 7082 .cfa: $rsp 64 +
STACK CFI 72cc .cfa: $rsp 56 +
STACK CFI 72cd .cfa: $rsp 48 +
STACK CFI 72ce .cfa: $rsp 40 +
STACK CFI 72d0 .cfa: $rsp 32 +
STACK CFI 72d2 .cfa: $rsp 24 +
STACK CFI 72d4 .cfa: $rsp 16 +
STACK CFI 72d6 .cfa: $rsp 8 +
STACK CFI 72e0 .cfa: $rsp 64 +
STACK CFI 72f4 .cfa: $rsp 56 +
STACK CFI 72f5 .cfa: $rsp 48 +
STACK CFI 72f6 .cfa: $rsp 40 +
STACK CFI 72f8 .cfa: $rsp 32 +
STACK CFI 72fa .cfa: $rsp 24 +
STACK CFI 72fc .cfa: $rsp 16 +
STACK CFI 72fe .cfa: $rsp 8 +
STACK CFI 7300 .cfa: $rsp 64 +
STACK CFI INIT 8460 256 .cfa: $rsp 8 + .ra: .cfa -8 + ^
STACK CFI 8462 $r15: .cfa -16 + ^ .cfa: $rsp 16 +
STACK CFI 8464 $r14: .cfa -24 + ^ .cfa: $rsp 24 +
STACK CFI 8466 $r13: .cfa -32 + ^ .cfa: $rsp 32 +
STACK CFI 8468 $r12: .cfa -40 + ^ .cfa: $rsp 40 +
STACK CFI 846c $rbp: .cfa -48 + ^ .cfa: $rsp 48 +
STACK CFI 846d $rbx: .cfa -56 + ^ .cfa: $rsp 56 +
STACK CFI 8474 .cfa: $rsp 80 +
STACK CFI 8513 .cfa: $rsp 56 +
STACK CFI 8514 .cfa: $rsp 48 +
STACK CFI 8515 .cfa: $rsp 40 +
STACK CFI 8517 .cfa: $rsp 32 +
STACK CFI 8519 .cfa: $rsp 24 +
STACK CFI 851b .cfa: $rsp 16 +
STACK CFI 851d .cfa: $rsp 8 +
STACK CFI 8520 .cfa: $rsp 80 +
STACK CFI INIT 7660 b46 .cfa: $rsp 8 + .ra: .cfa -8 + ^
STACK CFI 7662 $r15: .cfa -16 + ^ .cfa: $rsp 16 +
STACK CFI 7664 $r14: .cfa -24 + ^ .cfa: $rsp 24 +
STACK CFI 766d $r13: .cfa -32 + ^ .cfa: $rsp 32 +
STACK CFI 766f $r12: .cfa -40 + ^ .cfa: $rsp 40 +
STACK CFI 7673 $rbp: .cfa -48 + ^ .cfa: $rsp 48 +
STACK CFI 7674 $rbx: .cfa -56 + ^ .cfa: $rsp 56 +
STACK CFI 767b .cfa: $rsp 480 +
STACK CFI 782e .cfa: $rsp 56 +
STACK CFI 782f .cfa: $rsp 48 +
STACK CFI 7830 .cfa: $rsp 40 +
STACK CFI 7832 .cfa: $rsp 32 +
STACK CFI 7834 .cfa: $rsp 24 +
STACK CFI 7836 .cfa: $rsp 16 +
STACK CFI 7838 .cfa: $rsp 8 +
STACK CFI 7839 .cfa: $rsp 480 +
STACK CFI INIT 86c0 3 .cfa: $rsp 8 + .ra: .cfa -8 + ^
STACK CFI INIT 86d0 187 .cfa: $rsp 8 + .ra: .cfa -8 + ^
STACK CFI 86d2 $r15: .cfa -16 + ^ .cfa: $rsp 16 +
STACK CFI 86d4 $r14: .cfa -24 + ^ .cfa: $rsp 24 +
STACK CFI 86d9 $r13: .cfa -32 + ^ .cfa: $rsp 32 +
STACK CFI 86db $r12: .cfa -40 + ^ .cfa: $rsp 40 +
STACK CFI 86dc $rbp: .cfa -48 + ^ .cfa: $rsp 48 +
STACK CFI 86dd $rbx: .cfa -56 + ^ .cfa: $rsp 56 +
STACK CFI 86e1 .cfa: $rsp 112 +
STACK CFI 87c2 .cfa: $rsp 56 +
STACK CFI 87c3 .cfa: $rsp 48 +
STACK CFI 87c4 .cfa: $rsp 40 +
STACK CFI 87c6 .cfa: $rsp 32 +
STACK CFI 87c8 .cfa: $rsp 24 +
STACK CFI 87ca .cfa: $rsp 16 +
STACK CFI 87cc .cfa: $rsp 8 +
STACK CFI 87d0 .cfa: $rsp 112 +
STACK CFI INIT 9880 13 .cfa: $rsp 8 + .ra: .cfa -8 + ^
STACK CFI INIT 98a0 20 .cfa: $rsp 8 + .ra: .cfa -8 + ^
STACK CFI 98a8 $rbx: .cfa -16 + ^ .cfa: $rsp 16 +
STACK CFI 98bb .cfa: $rsp 8 +
STACK CFI INIT 8860 b0 .cfa: $rsp 8 + .ra: .cfa -8 + ^
STACK CFI 8862 $r15: .cfa -16 + ^ .cfa: $rsp 16 +
STACK CFI 8864 $r14: .cfa -24 + ^ .cfa: $rsp 24 +
STACK CFI 8866 $r13: .cfa -32 + ^ .cfa: $rsp 32 +
STACK CFI 8868 $r12: .cfa -40 + ^ .cfa: $rsp 40 +
STACK CFI 886c $rbp: .cfa -48 + ^ .cfa: $rsp 48 +
STACK CFI 886d $rbx: .cfa -56 + ^ .cfa: $rsp 56 +
STACK CFI 887a .cfa: $rsp 64 +
STACK CFI 888b .cfa: $rsp 56 +
STACK CFI 888e .cfa: $rsp 48 +
STACK CFI 888f .cfa: $rsp 40 +
STACK CFI 8891 .cfa: $rsp 32 +
STACK CFI 8893 .cfa: $rsp 24 +
STACK CFI 8895 .cfa: $rsp 16 +
STACK CFI 8897 .cfa: $rsp 8 +
STACK CFI 88a0 .cfa: $rsp 64 +
STACK CFI 8900 .cfa: $rsp 56 +
STACK CFI 8906 .cfa: $rsp 48 +
STACK CFI 8907 .cfa: $rsp 40 +
STACK CFI 8909 .cfa: $rsp 32 +
STACK CFI 890b .cfa: $rsp 24 +
STACK CFI 890d .cfa: $rsp 16 +
STACK CFI 890f .cfa: $rsp 8 +
STACK CFI INIT 8910 2b .cfa: $rsp 8 + .ra: .cfa -8 + ^
STACK CFI INIT 8940 bb .cfa: $rsp 8 + .ra: .cfa -8 + ^
STACK CFI 8951 $r15: .cfa -16 + ^ .cfa: $rsp 16 +
STACK CFI 8953 $r14: .cfa -24 + ^ .cfa: $rsp 24 +
STACK CFI 895b $r13: .cfa -32 + ^ .cfa: $rsp 32 +
STACK CFI 895d $r12: .cfa -40 + ^ .cfa: $rsp 40 +
STACK CFI 8961 $rbp: .cfa -48 + ^ .cfa: $rsp 48 +
STACK CFI 8962 $rbx: .cfa -56 + ^ .cfa: $rsp 56 +
STACK CFI 8966 .cfa: $rsp 64 +
STACK CFI 89ec .cfa: $rsp 56 +
STACK CFI 89f0 $rbx: $rbx .cfa: $rsp 48 +
STACK CFI 89f1 $rbp: $rbp .cfa: $rsp 40 +
STACK CFI 89f3 $r12: $r12 .cfa: $rsp 32 +
STACK CFI 89f5 $r13: $r13 .cfa: $rsp 24 +
STACK CFI 89f7 $r14: $r14 .cfa: $rsp 16 +
STACK CFI 89f9 $r15: $r15 .cfa: $rsp 8 +
STACK CFI INIT 8a00 51d .cfa: $rsp 8 + .ra: .cfa -8 + ^
STACK CFI 8a02 $r15: .cfa -16 + ^ .cfa: $rsp 16 +
STACK CFI 8a04 $r14: .cfa -24 + ^ .cfa: $rsp 24 +
STACK CFI 8a06 $r13: .cfa -32 + ^ .cfa: $rsp 32 +
STACK CFI 8a08 $r12: .cfa -40 + ^ .cfa: $rsp 40 +
STACK CFI 8a0c $rbp: .cfa -48 + ^ .cfa: $rsp 48 +
STACK CFI 8a0d $rbx: .cfa -56 + ^ .cfa: $rsp 56 +
STACK CFI 8a14 .cfa: $rsp 336 +
STACK CFI 8bb7 .cfa: $rsp 56 +
STACK CFI 8bb8 .cfa: $rsp 48 +
STACK CFI 8bb9 .cfa: $rsp 40 +
STACK CFI 8bbb .cfa: $rsp 32 +
STACK CFI 8bbd .cfa: $rsp 24 +
STACK CFI 8bbf .cfa: $rsp 16 +
STACK CFI 8bc1 .cfa: $rsp 8 +
STACK CFI 8bc8 .cfa: $rsp 336 +
STACK CFI INIT 8f20 56f .cfa: $rsp 8 + .ra: .cfa -8 + ^
STACK CFI 8f22 $r15: .cfa -16 + ^ .cfa: $rsp 16 +
STACK CFI 8f24 $r14: .cfa -24 + ^ .cfa: $rsp 24 +
STACK CFI 8f26 $r13: .cfa -32 + ^ .cfa: $rsp 32 +
STACK CFI 8f28 $r12: .cfa -40 + ^ .cfa: $rsp 40 +
STACK CFI 8f2c $rbp: .cfa -48 + ^ .cfa: $rsp 48 +
STACK CFI 8f2d $rbx: .cfa -56 + ^ .cfa: $rsp 56 +
STACK CFI 8f37 .cfa: $rsp 400 +
STACK CFI 9168 .cfa: $rsp 56 +
STACK CFI 9169 .cfa: $rsp 48 +
STACK CFI 916a .cfa: $rsp 40 +
STACK CFI 916c .cfa: $rsp 32 +
STACK CFI 916e .cfa: $rsp 24 +
STACK CFI 9170 .cfa: $rsp 16 +
STACK CFI 9172 .cfa: $rsp 8 +
STACK CFI 9173 .cfa: $rsp 400 +
STACK CFI INIT 9490 27 .cfa: $rsp 8 + .ra: .cfa -8 + ^
STACK CFI 9491 $rbx: .cfa -16 + ^ .cfa: $rsp 16 +
STACK CFI 94b6 .cfa: $rsp 8 +
STACK CFI INIT 98c0 246 .cfa: $rsp 8 + .ra: .cfa -8 + ^
STACK CFI 98c2 $r15: .cfa -16 + ^ .cfa: $rsp 16 +
STACK CFI 98c4 $r14: .cfa -24 + ^ .cfa: $rsp 24 +
STACK CFI 98c6 $r13: .cfa -32 + ^ .cfa: $rsp 32 +
STACK CFI 98c8 $r12: .cfa -40 + ^ .cfa: $rsp 40 +
STACK CFI 98cc $rbp: .cfa -48 + ^ .cfa: $rsp 48 +
STACK CFI 98cd $rbx: .cfa -56 + ^ .cfa: $rsp 56 +
STACK CFI 98d4 .cfa: $rsp 80 +
STACK CFI 9969 .cfa: $rsp 56 +
STACK CFI 996a .cfa: $rsp 48 +
STACK CFI 996b .cfa: $rsp 40 +
STACK CFI 996d .cfa: $rsp 32 +
STACK CFI 996f .cfa: $rsp 24 +
STACK CFI 9971 .cfa: $rsp 16 +
STACK CFI 9973 .cfa: $rsp 8 +
STACK CFI 9978 .cfa: $rsp 80 +
STACK CFI INIT 94c0 3b6 .cfa: $rsp 8 + .ra: .cfa -8 + ^
STACK CFI 94c2 $r15: .cfa -16 + ^ .cfa: $rsp 16 +
STACK CFI 94c4 $r14: .cfa -24 + ^ .cfa: $rsp 24 +
STACK CFI 94cd $r13: .cfa -32 + ^ .cfa: $rsp 32 +
STACK CFI 94cf $r12: .cfa -40 + ^ .cfa: $rsp 40 +
STACK CFI 94d0 $rbp: .cfa -48 + ^ .cfa: $rsp 48 +
STACK CFI 94d1 $rbx: .cfa -56 + ^ .cfa: $rsp 56 +
STACK CFI 94db .cfa: $rsp 384 +
STACK CFI 9573 .cfa: $rsp 56 +
STACK CFI 9574 .cfa: $rsp 48 +
STACK CFI 9575 .cfa: $rsp 40 +
STACK CFI 9577 .cfa: $rsp 32 +
STACK CFI 9579 .cfa: $rsp 24 +
STACK CFI 957b .cfa: $rsp 16 +
STACK CFI 957d .cfa: $rsp 8 +
STACK CFI 9580 .cfa: $rsp 384 +
STACK CFI INIT 19c0 2c .cfa: $rsp 8 + .ra: .cfa -8 + ^
STACK CFI 19c1 $rbp: .cfa -16 + ^ .cfa: $rsp 16 +
STACK CFI 19c2 $rbx: .cfa -24 + ^ .cfa: $rsp 24 +
STACK CFI 19c7 .cfa: $rsp 32 +
STACK CFI 19e2 .cfa: $rsp 24 +
STACK CFI 19e6 .cfa: $rsp 16 +
STACK CFI 19e7 .cfa: $rsp 8 +
STACK CFI INIT 19ec 20 .cfa: $rsp 8 + .ra: .cfa -8 + ^
STACK CFI 19f4 .cfa: $rsp 16 +
STACK CFI INIT 1a0c 1d .cfa: $rsp 8 + .ra: .cfa -8 + ^
STACK CFI 1a12 .cfa: $rsp 16 +
STACK CFI 1a17 .cfa: $rsp 8 +
STACK CFI INIT 1a2a 20 .cfa: $rsp 8 + .ra: .cfa -8 + ^
STACK CFI 1a32 .cfa: $rsp 16 +
STACK CFI INIT 1a4a 20 .cfa: $rsp 8 + .ra: .cfa -8 + ^
STACK CFI 1a52 .cfa: $rsp 16 +
STACK CFI INIT 1a6a 20 .cfa: $rsp 8 + .ra: .cfa -8 + ^
STACK CFI 1a72 .cfa: $rsp 16 +
STACK CFI INIT dbe0 150 .cfa: $rsp 8 + .ra: .cfa -8 + ^
STACK CFI dbeb $r15: .cfa -16 + ^ .cfa: $rsp 16 +
STACK CFI dbed $r14: .cfa -24 + ^ .cfa: $rsp 24 +
STACK CFI dbef $r13: .cfa -32 + ^ .cfa: $rsp 32 +
STACK CFI dbf1 $r12: .cfa -40 + ^ .cfa: $rsp 40 +
STACK CFI dbf2 $rbp: .cfa -48 + ^ .cfa: $rsp 48 +
STACK CFI dbf3 $rbx: .cfa -56 + ^ .cfa: $rsp 56 +
STACK CFI dbfa .cfa: $rsp 64 +
STACK CFI dc30 .cfa: $rsp 56 +
STACK CFI dc31 $rbx: $rbx .cfa: $rsp 48 +
STACK CFI dc32 $rbp: $rbp .cfa: $rsp 40 +
STACK CFI dc34 $r12: $r12 .cfa: $rsp 32 +
STACK CFI dc36 $r13: $r13 .cfa: $rsp 24 +
STACK CFI dc38 $r14: $r14 .cfa: $rsp 16 +
STACK CFI dc3a $r15: $r15 .cfa: $rsp 8 +
STACK CFI dc40 $r12: .cfa -40 + ^ $r13: .cfa -32 + ^ $r14: .cfa -24 + ^ $r15: .cfa -16 + ^ $rbp: .cfa -48 + ^ $rbx: .cfa -56 + ^ .cfa: $rsp 64 +
STACK CFI dcef .cfa: $rsp 56 +
STACK CFI dcf4 $rbx: $rbx .cfa: $rsp 48 +
STACK CFI dcf5 $rbp: $rbp .cfa: $rsp 40 +
STACK CFI dcf7 $r12: $r12 .cfa: $rsp 32 +
STACK CFI dcf9 $r13: $r13 .cfa: $rsp 24 +
STACK CFI dcfb $r14: $r14 .cfa: $rsp 16 +
STACK CFI dcfd $r15: $r15 .cfa: $rsp 8 +
STACK CFI dd00 $r12: .cfa -40 + ^ $r13: .cfa -32 + ^ $r14: .cfa -24 + ^ $r15: .cfa -16 + ^ $rbp: .cfa -48 + ^ $rbx: .cfa -56 + ^ .cfa: $rsp 64 +
STACK CFI dd14 .cfa: $rsp 56 +
STACK CFI dd15 $rbx: $rbx .cfa: $rsp 48 +
STACK CFI dd16 $rbp: $rbp .cfa: $rsp 40 +
STACK CFI dd18 $r12: $r12 .cfa: $rsp 32 +
STACK CFI dd1a $r13: $r13 .cfa: $rsp 24 +
STACK CFI dd1c $r14: $r14 .cfa: $rsp 16 +
STACK CFI dd1e $r15: $r15 .cfa: $rsp 8 +
STACK CFI dd28 $r12: .cfa -40 + ^ $r13: .cfa -32 + ^ $r14: .cfa -24 + ^ $r15: .cfa -16 + ^ $rbp: .cfa -48 + ^ $rbx: .cfa -56 + ^ .cfa: $rsp 64 +
STACK CFI INIT 1a8a 1f2 .cfa: $rsp 8 + .ra: .cfa -8 + ^
STACK CFI 1a8c $r15: .cfa -16 + ^ .cfa: $rsp 16 +
STACK CFI 1a8e $r14: .cfa -24 + ^ .cfa: $rsp 24 +
STACK CFI 1a95 $r13: .cfa -32 + ^ .cfa: $rsp 32 +
STACK CFI 1a97 $r12: .cfa -40 + ^ .cfa: $rsp 40 +
STACK CFI 1a9b $rbp: .cfa -48 + ^ .cfa: $rsp 48 +
STACK CFI 1a9c $rbx: .cfa -56 + ^ .cfa: $rsp 56 +
STACK CFI 1aa3 .cfa: $rsp 112 +
STACK CFI 1c71 .cfa: $rsp 56 +
STACK CFI 1c72 .cfa: $rsp 48 +
STACK CFI 1c73 .cfa: $rsp 40 +
STACK CFI 1c75 .cfa: $rsp 32 +
STACK CFI 1c77 .cfa: $rsp 24 +
STACK CFI 1c79 .cfa: $rsp 16 +
STACK CFI 1c7b .cfa: $rsp 8 +
STACK CFI INIT 1c7c 68 .cfa: $rsp 8 + .ra: .cfa -8 + ^
STACK CFI 1c7e $r12: .cfa -16 + ^ .cfa: $rsp 16 +
STACK CFI 1c7f $rbp: .cfa -24 + ^ .cfa: $rsp 24 +
STACK CFI 1c83 $rbx: .cfa -32 + ^ .cfa: $rsp 32 +
STACK CFI 1c8d .cfa: $rsp 304 +
STACK CFI 1cdf .cfa: $rsp 32 +
STACK CFI 1ce0 .cfa: $rsp 24 +
STACK CFI 1ce1 .cfa: $rsp 16 +
STACK CFI 1ce3 .cfa: $rsp 8 +
STACK CFI INIT dd30 22 .cfa: $rsp 8 + .ra: .cfa -8 + ^
STACK CFI INIT dd60 22 .cfa: $rsp 8 + .ra: .cfa -8 + ^
STACK CFI INIT dd90 22 .cfa: $rsp 8 + .ra: .cfa -8 + ^
STACK CFI INIT ddc0 22 .cfa: $rsp 8 + .ra: .cfa -8 + ^
STACK CFI INIT ddf0 27c .cfa: $rsp 8 + .ra: .cfa -8 + ^
STACK CFI de12 $r15: .cfa -16 + ^ .cfa: $rsp 16 +
STACK CFI de14 $r14: .cfa -24 + ^ .cfa: $rsp 24 +
STACK CFI de16 $r13: .cfa -32 + ^ .cfa: $rsp 32 +
STACK CFI de18 $r12: .cfa -40 + ^ .cfa: $rsp 40 +
STACK CFI de19 $rbp: .cfa -48 + ^ .cfa: $rsp 48 +
STACK CFI de1a $rbx: .cfa -56 + ^ .cfa: $rsp 56 +
STACK CFI de21 .cfa: $rsp 80 +
STACK CFI de59 .cfa: $rsp 56 +
STACK CFI de5a $rbx: $rbx .cfa: $rsp 48 +
STACK CFI de5b $rbp: $rbp .cfa: $rsp 40 +
STACK CFI de5d $r12: $r12 .cfa: $rsp 32 +
STACK CFI de5f $r13: $r13 .cfa: $rsp 24 +
STACK CFI de61 $r14: $r14 .cfa: $rsp 16 +
STACK CFI de63 $r15: $r15 .cfa: $rsp 8 +
STACK CFI de68 $r12: .cfa -40 + ^ $r13: .cfa -32 + ^ $r14: .cfa -24 + ^ $r15: .cfa -16 + ^ $rbp: .cfa -48 + ^ $rbx: .cfa -56 + ^ .cfa: $rsp 80 +
STACK CFI INIT e070 273 .cfa: $rsp 8 + .ra: .cfa -8 + ^
STACK CFI e072 $r15: .cfa -16 + ^ .cfa: $rsp 16 +
STACK CFI e074 $r14: .cfa -24 + ^ .cfa: $rsp 24 +
STACK CFI e076 $r13: .cfa -32 + ^ .cfa: $rsp 32 +
STACK CFI e078 $r12: .cfa -40 + ^ .cfa: $rsp 40 +
STACK CFI e07c $rbp: .cfa -48 + ^ .cfa: $rsp 48 +
STACK CFI e07d $rbx: .cfa -56 + ^ .cfa: $rsp 56 +
STACK CFI e084 .cfa: $rsp 80 +
STACK CFI e133 .cfa: $rsp 56 +
STACK CFI e134 .cfa: $rsp 48 +
STACK CFI e135 .cfa: $rsp 40 +
STACK CFI e137 .cfa: $rsp 32 +
STACK CFI e139 .cfa: $rsp 24 +
STACK CFI e13b .cfa: $rsp 16 +
STACK CFI e13d .cfa: $rsp 8 +
STACK CFI e140 .cfa: $rsp 80 +
STACK CFI INIT 9b10 e8d .cfa: $rsp 8 + .ra: .cfa -8 + ^
STACK CFI 9b12 $r15: .cfa -16 + ^ .cfa: $rsp 16 +
STACK CFI 9b14 $r14: .cfa -24 + ^ .cfa: $rsp 24 +
STACK CFI 9b16 $r13: .cfa -32 + ^ .cfa: $rsp 32 +
STACK CFI 9b18 $r12: .cfa -40 + ^ .cfa: $rsp 40 +
STACK CFI 9b19 $rbp: .cfa -48 + ^ .cfa: $rsp 48 +
STACK CFI 9b1a $rbx: .cfa -56 + ^ .cfa: $rsp 56 +
STACK CFI 9b24 .cfa: $rsp 2448 +
STACK CFI 9eab .cfa: $rsp 56 +
STACK CFI 9eac .cfa: $rsp 48 +
STACK CFI 9ead .cfa: $rsp 40 +
STACK CFI 9eaf .cfa: $rsp 32 +
STACK CFI 9eb1 .cfa: $rsp 24 +
STACK CFI 9eb3 .cfa: $rsp 16 +
STACK CFI 9eb5 .cfa: $rsp 8 +
STACK CFI 9eb6 .cfa: $rsp 2448 +
STACK CFI INIT e2f0 1db .cfa: $rsp 8 + .ra: .cfa -8 + ^
STACK CFI e2f2 $r15: .cfa -16 + ^ .cfa: $rsp 16 +
STACK CFI e2f4 $r14: .cfa -24 + ^ .cfa: $rsp 24 +
STACK CFI e2f6 $r13: .cfa -32 + ^ .cfa: $rsp 32 +
STACK CFI e2f8 $r12: .cfa -40 + ^ .cfa: $rsp 40 +
STACK CFI e2f9 $rbp: .cfa -48 + ^ .cfa: $rsp 48 +
STACK CFI e2fa $rbx: .cfa -56 + ^ .cfa: $rsp 56 +
STACK CFI e2fe .cfa: $rsp 96 +
STACK CFI e312 .cfa: $rsp 56 +
STACK CFI e313 .cfa: $rsp 48 +
STACK CFI e314 .cfa: $rsp 40 +
STACK CFI e316 .cfa: $rsp 32 +
STACK CFI e318 .cfa: $rsp 24 +
STACK CFI e31a .cfa: $rsp 16 +
STACK CFI e31c .cfa: $rsp 8 +
STACK CFI e320 .cfa: $rsp 96 +
STACK CFI e385 .cfa: $rsp 56 +
STACK CFI e386 .cfa: $rsp 48 +
STACK CFI e387 .cfa: $rsp 40 +
STACK CFI e389 .cfa: $rsp 32 +
STACK CFI e38b .cfa: $rsp 24 +
STACK CFI e38d .cfa: $rsp 16 +
STACK CFI e38f .cfa: $rsp 8 +
STACK CFI e390 .cfa: $rsp 96 +
STACK CFI INIT a9a0 22a8 .cfa: $rsp 8 + .ra: .cfa -8 + ^
STACK CFI a9a1 $rbp: .cfa -16 + ^ .cfa: $rsp 16 +
STACK CFI a9a9 .cfa: $rbp 16 +
STACK CFI a9b1 $r12: .cfa -48 + ^ $r13: .cfa -40 + ^ $r14: .cfa -32 + ^ $r15: .cfa -24 + ^
STACK CFI a9bc $rbx: .cfa -56 + ^
STACK CFI ab29 .cfa: $rsp 8 +
STACK CFI ab30 .cfa: $rbp 16 +
STACK CFI INIT cc50 469 .cfa: $rsp 8 + .ra: .cfa -8 + ^
STACK CFI cc52 $r15: .cfa -16 + ^ .cfa: $rsp 16 +
STACK CFI cc54 $r14: .cfa -24 + ^ .cfa: $rsp 24 +
STACK CFI cc59 $r13: .cfa -32 + ^ .cfa: $rsp 32 +
STACK CFI cc5b $r12: .cfa -40 + ^ .cfa: $rsp 40 +
STACK CFI cc5f $rbp: .cfa -48 + ^ .cfa: $rsp 48 +
STACK CFI cc60 $rbx: .cfa -56 + ^ .cfa: $rsp 56 +
STACK CFI cc6e .cfa: $rsp 528 +
STACK CFI cd17 .cfa: $rsp 56 +
STACK CFI cd18 .cfa: $rsp 48 +
STACK CFI cd19 .cfa: $rsp 40 +
STACK CFI cd1b .cfa: $rsp 32 +
STACK CFI cd1d .cfa: $rsp 24 +
STACK CFI cd1f .cfa: $rsp 16 +
STACK CFI cd21 .cfa: $rsp 8 +
STACK CFI cd28 .cfa: $rsp 528 +
STACK CFI INIT d0c0 109 .cfa: $rsp 8 + .ra: .cfa -8 + ^
STACK CFI d0c1 $rbp: .cfa -16 + ^ .cfa: $rsp 16 +
STACK CFI d0c8 .cfa: $rbp 16 +
STACK CFI d0cf $r12: .cfa -40 + ^ $r13: .cfa -32 + ^ $r14: .cfa -24 + ^ $rbx: .cfa -48 + ^
STACK CFI d186 .cfa: $rsp 8 +
STACK CFI d187 .cfa: $rbp 16 +
STACK CFI INIT d1d0 109 .cfa: $rsp 8 + .ra: .cfa -8 + ^
STACK CFI d1d1 $rbp: .cfa -16 + ^ .cfa: $rsp 16 +
STACK CFI d1d8 .cfa: $rbp 16 +
STACK CFI d1df $r12: .cfa -40 + ^ $r13: .cfa -32 + ^ $r14: .cfa -24 + ^ $rbx: .cfa -48 + ^
STACK CFI d296 .cfa: $rsp 8 +
STACK CFI d297 .cfa: $rbp 16 +
STACK CFI INIT d2e0 36 .cfa: $rsp 8 + .ra: .cfa -8 + ^
STACK CFI d2e4 .cfa: $rsp 24 +
STACK CFI d2ea .cfa: $rsp 32 +
STACK CFI d2ee .cfa: $rsp 40 +
STACK CFI d2f4 .cfa: $rsp 48 +
STACK CFI d2f6 .cfa: $rsp 56 +
STACK CFI d2fb .cfa: $rsp 64 +
STACK CFI d315 .cfa: $rsp 8 +
STACK CFI INIT d320 35 .cfa: $rsp 8 + .ra: .cfa -8 + ^
STACK CFI d324 .cfa: $rsp 24 +
STACK CFI d32a .cfa: $rsp 32 +
STACK CFI d32e .cfa: $rsp 40 +
STACK CFI d334 .cfa: $rsp 48 +
STACK CFI d336 .cfa: $rsp 56 +
STACK CFI d33b .cfa: $rsp 64 +
STACK CFI d354 .cfa: $rsp 8 +
STACK CFI INIT d360 34 .cfa: $rsp 8 + .ra: .cfa -8 + ^
STACK CFI d364 .cfa: $rsp 24 +
STACK CFI d36a .cfa: $rsp 32 +
STACK CFI d36e .cfa: $rsp 40 +
STACK CFI d374 .cfa: $rsp 48 +
STACK CFI d378 .cfa: $rsp 56 +
STACK CFI d37a .cfa: $rsp 64 +
STACK CFI d393 .cfa: $rsp 8 +
STACK CFI INIT d3a0 33 .cfa: $rsp 8 + .ra: .cfa -8 + ^
STACK CFI d3a4 .cfa: $rsp 24 +
STACK CFI d3aa .cfa: $rsp 32 +
STACK CFI d3ae .cfa: $rsp 40 +
STACK CFI d3b4 .cfa: $rsp 48 +
STACK CFI d3b8 .cfa: $rsp 56 +
STACK CFI d3ba .cfa: $rsp 64 +
STACK CFI d3d2 .cfa: $rsp 8 +
STACK CFI INIT d3e0 481 .cfa: $rsp 8 + .ra: .cfa -8 + ^
STACK CFI d3e2 $r15: .cfa -16 + ^ .cfa: $rsp 16 +
STACK CFI d3e4 $r14: .cfa -24 + ^ .cfa: $rsp 24 +
STACK CFI d3e9 $r13: .cfa -32 + ^ .cfa: $rsp 32 +
STACK CFI d3eb $r12: .cfa -40 + ^ .cfa: $rsp 40 +
STACK CFI d3ec $rbp: .cfa -48 + ^ .cfa: $rsp 48 +
STACK CFI d3ed $rbx: .cfa -56 + ^ .cfa: $rsp 56 +
STACK CFI d3f6 .cfa: $rsp 544 +
STACK CFI d656 .cfa: $rsp 56 +
STACK CFI d657 .cfa: $rsp 48 +
STACK CFI d658 .cfa: $rsp 40 +
STACK CFI d65a .cfa: $rsp 32 +
STACK CFI d65c .cfa: $rsp 24 +
STACK CFI d65e .cfa: $rsp 16 +
STACK CFI d660 .cfa: $rsp 8 +
STACK CFI d661 .cfa: $rsp 544 +
STACK CFI INIT d870 363 .cfa: $rsp 8 + .ra: .cfa -8 + ^
STACK CFI d872 $r15: .cfa -16 + ^ .cfa: $rsp 16 +
STACK CFI d874 $r14: .cfa -24 + ^ .cfa: $rsp 24 +
STACK CFI d879 $r13: .cfa -32 + ^ .cfa: $rsp 32 +
STACK CFI d87b $r12: .cfa -40 + ^ .cfa: $rsp 40 +
STACK CFI d87f $rbp: .cfa -48 + ^ .cfa: $rsp 48 +
STACK CFI d880 $rbx: .cfa -56 + ^ .cfa: $rsp 56 +
STACK CFI d887 .cfa: $rsp 256 +
STACK CFI da33 .cfa: $rsp 56 +
STACK CFI da34 .cfa: $rsp 48 +
STACK CFI da35 .cfa: $rsp 40 +
STACK CFI da37 .cfa: $rsp 32 +
STACK CFI da39 .cfa: $rsp 24 +
STACK CFI da3b .cfa: $rsp 16 +
STACK CFI da3d .cfa: $rsp 8 +
STACK CFI da40 .cfa: $rsp 256 +
STACK CFI INIT 1ce4 20 .cfa: $rsp 8 + .ra: .cfa -8 + ^
STACK CFI 1cec .cfa: $rsp 16 +
STACK CFI INIT 1d04 20 .cfa: $rsp 8 + .ra: .cfa -8 + ^
STACK CFI 1d0c .cfa: $rsp 16 +
STACK CFI INIT e4d0 1a .cfa: $rsp 8 + .ra: .cfa -8 + ^
STACK CFI INIT e4f0 78 .cfa: $rsp 8 + .ra: .cfa -8 + ^
STACK CFI e4f2 $r12: .cfa -16 + ^ .cfa: $rsp 16 +
STACK CFI e4f3 $rbp: .cfa -24 + ^ .cfa: $rsp 24 +
STACK CFI e4f7 $rbx: .cfa -32 + ^ .cfa: $rsp 32 +
STACK CFI e52f .cfa: $rsp 24 +
STACK CFI e530 .cfa: $rsp 16 +
STACK CFI e532 .cfa: $rsp 8 +
STACK CFI e538 .cfa: $rsp 32 +
STACK CFI e545 .cfa: $rsp 24 +
STACK CFI e546 .cfa: $rsp 16 +
STACK CFI e548 .cfa: $rsp 8 +
STACK CFI e549 .cfa: $rsp 32 +
STACK CFI INIT e570 2c .cfa: $rsp 8 + .ra: .cfa -8 + ^
STACK CFI e584 .cfa: $rsp 16 +
STACK CFI INIT e5a0 5d .cfa: $rsp 8 + .ra: .cfa -8 + ^
STACK CFI e5a2 $r12: .cfa -16 + ^ .cfa: $rsp 16 +
STACK CFI e5a3 $rbp: .cfa -24 + ^ .cfa: $rsp 24 +
STACK CFI e5a9 $rbx: .cfa -32 + ^ .cfa: $rsp 32 +
STACK CFI e5e9 .cfa: $rsp 24 +
STACK CFI e5ea .cfa: $rsp 16 +
STACK CFI e5ec .cfa: $rsp 8 +
STACK CFI e5f0 .cfa: $rsp 32 +
STACK CFI INIT e600 15 .cfa: $rsp 8 + .ra: .cfa -8 + ^
STACK CFI INIT e620 be .cfa: $rsp 8 + .ra: .cfa -8 + ^
STACK CFI e622 $r13: .cfa -16 + ^ .cfa: $rsp 16 +
STACK CFI e624 $r12: .cfa -24 + ^ .cfa: $rsp 24 +
STACK CFI e625 $rbp: .cfa -32 + ^ .cfa: $rsp 32 +
STACK CFI e626 $rbx: .cfa -40 + ^ .cfa: $rsp 40 +
STACK CFI e62a .cfa: $rsp 48 +
STACK CFI e665 .cfa: $rsp 40 +
STACK CFI e666 .cfa: $rsp 32 +
STACK CFI e667 .cfa: $rsp 24 +
STACK CFI e669 .cfa: $rsp 16 +
STACK CFI e66b .cfa: $rsp 8 +
STACK CFI e670 .cfa: $rsp 48 +
STACK CFI INIT e6e0 ff .cfa: $rsp 8 + .ra: .cfa -8 + ^
STACK CFI e6e1 $rbp: .cfa -16 + ^ .cfa: $rsp 16 +
STACK CFI e6e2 $rbx: .cfa -24 + ^ .cfa: $rsp 24 +
STACK CFI e6e9 .cfa: $rsp 32 +
STACK CFI e76d .cfa: $rsp 24 +
STACK CFI e76e .cfa: $rsp 16 +
STACK CFI e76f .cfa: $rsp 8 +
STACK CFI e770 .cfa: $rsp 32 +
STACK CFI e77d .cfa: $rsp 24 +
STACK CFI e780 .cfa: $rsp 16 +
STACK CFI e781 .cfa: $rsp 8 +
STACK CFI e782 .cfa: $rsp 32 +
STACK CFI INIT e7e0 d9 .cfa: $rsp 8 + .ra: .cfa -8 + ^
STACK CFI e7e2 $r15: .cfa -16 + ^ .cfa: $rsp 16 +
STACK CFI e7e4 $r14: .cfa -24 + ^ .cfa: $rsp 24 +
STACK CFI e7e6 $r13: .cfa -32 + ^ .cfa: $rsp 32 +
STACK CFI e7e8 $r12: .cfa -40 + ^ .cfa: $rsp 40 +
STACK CFI e7e9 $rbp: .cfa -48 + ^ .cfa: $rsp 48 +
STACK CFI e7ea $rbx: .cfa -56 + ^ .cfa: $rsp 56 +
STACK CFI e7f0 .cfa: $rsp 80 +
STACK CFI e89d .cfa: $rsp 56 +
STACK CFI e89e .cfa: $rsp 48 +
STACK CFI e89f .cfa: $rsp 40 +
STACK CFI e8a1 .cfa: $rsp 32 +
STACK CFI e8a3 .cfa: $rsp 24 +
STACK CFI e8a5 .cfa: $rsp 16 +
STACK CFI e8a7 .cfa: $rsp 8 +
STACK CFI e8a8 .cfa: $rsp 80 +
STACK CFI INIT e8c0 da .cfa: $rsp 8 + .ra: .cfa -8 + ^
STACK CFI e8c2 $r15: .cfa -16 + ^ .cfa: $rsp 16 +
STACK CFI e8c4 $r14: .cfa -24 + ^ .cfa: $rsp 24 +
STACK CFI e8c6 $r13: .cfa -32 + ^ .cfa: $rsp 32 +
STACK CFI e8c8 $r12: .cfa -40 + ^ .cfa: $rsp 40 +
STACK CFI e8c9 $rbp: .cfa -48 + ^ .cfa: $rsp 48 +
STACK CFI e8ca $rbx: .cfa -56 + ^ .cfa: $rsp 56 +
STACK CFI e8d0 .cfa: $rsp 80 +
STACK CFI e97e .cfa: $rsp 56 +
STACK CFI e97f .cfa: $rsp 48 +
STACK CFI e980 .cfa: $rsp 40 +
STACK CFI e982 .cfa: $rsp 32 +
STACK CFI e984 .cfa: $rsp 24 +
STACK CFI e986 .cfa: $rsp 16 +
STACK CFI e988 .cfa: $rsp 8 +
STACK CFI e989 .cfa: $rsp 80 +
STACK CFI INIT e9a0 41 .cfa: $rsp 8 + .ra: .cfa -8 + ^
STACK CFI e9a1 $rbx: .cfa -16 + ^ .cfa: $rsp 16 +
STACK CFI e9c1 .cfa: $rsp 8 +
STACK CFI e9c2 .cfa: $rsp 16 +
STACK CFI INIT e9f0 88 .cfa: $rsp 8 + .ra: .cfa -8 + ^
STACK CFI e9f4 .cfa: $rsp 16 +
STACK CFI ea17 .cfa: $rsp 8 +
STACK CFI ea1c .cfa: $rsp 16 +
STACK CFI INIT ea80 df .cfa: $rsp 8 + .ra: .cfa -8 + ^
STACK CFI ea82 $r12: .cfa -16 + ^ .cfa: $rsp 16 +
STACK CFI ea83 $rbp: .cfa -24 + ^ .cfa: $rsp 24 +
STACK CFI ea87 $rbx: .cfa -32 + ^ .cfa: $rsp 32 +
STACK CFI ea8b .cfa: $rsp 64 +
STACK CFI eae5 .cfa: $rsp 32 +
STACK CFI eae6 .cfa: $rsp 24 +
STACK CFI eae7 .cfa: $rsp 16 +
STACK CFI eae9 .cfa: $rsp 8 +
STACK CFI eaf0 .cfa: $rsp 64 +
STACK CFI INIT eb80 22 .cfa: $rsp 8 + .ra: .cfa -8 + ^
STACK CFI INIT ebb0 20b .cfa: $rsp 8 + .ra: .cfa -8 + ^
STACK CFI ebb2 $r15: .cfa -16 + ^ .cfa: $rsp 16 +
STACK CFI ebb4 $r14: .cfa -24 + ^ .cfa: $rsp 24 +
STACK CFI ebb6 $r13: .cfa -32 + ^ .cfa: $rsp 32 +
STACK CFI ebb8 $r12: .cfa -40 + ^ .cfa: $rsp 40 +
STACK CFI ebb9 $rbp: .cfa -48 + ^ .cfa: $rsp 48 +
STACK CFI ebba $rbx: .cfa -56 + ^ .cfa: $rsp 56 +
STACK CFI ebc1 .cfa: $rsp 128 +
STACK CFI eccc .cfa: $rsp 56 +
STACK CFI eccd .cfa: $rsp 48 +
STACK CFI ecce .cfa: $rsp 40 +
STACK CFI ecd0 .cfa: $rsp 32 +
STACK CFI ecd2 .cfa: $rsp 24 +
STACK CFI ecd4 .cfa: $rsp 16 +
STACK CFI ecd6 .cfa: $rsp 8 +
STACK CFI ece0 .cfa: $rsp 128 +
STACK CFI INIT eb60 5 .cfa: $rsp 8 + .ra: .cfa -8 + ^
STACK CFI INIT edc0 20b .cfa: $rsp 8 + .ra: .cfa -8 + ^
STACK CFI edc2 $r15: .cfa -16 + ^ .cfa: $rsp 16 +
STACK CFI edc4 $r14: .cfa -24 + ^ .cfa: $rsp 24 +
STACK CFI edc6 $r13: .cfa -32 + ^ .cfa: $rsp 32 +
STACK CFI edc8 $r12: .cfa -40 + ^ .cfa: $rsp 40 +
STACK CFI edc9 $rbp: .cfa -48 + ^ .cfa: $rsp 48 +
STACK CFI edca $rbx: .cfa -56 + ^ .cfa: $rsp 56 +
STACK CFI edd1 .cfa: $rsp 128 +
STACK CFI eedb .cfa: $rsp 56 +
STACK CFI eedc .cfa: $rsp 48 +
STACK CFI eedd .cfa: $rsp 40 +
STACK CFI eedf .cfa: $rsp 32 +
STACK CFI eee1 .cfa: $rsp 24 +
STACK CFI eee3 .cfa: $rsp 16 +
STACK CFI eee5 .cfa: $rsp 8 +
STACK CFI eef0 .cfa: $rsp 128 +
STACK CFI INIT eb70 5 .cfa: $rsp 8 + .ra: .cfa -8 + ^
STACK CFI INIT efd0 fc .cfa: $rsp 8 + .ra: .cfa -8 + ^
STACK CFI efd2 $r14: .cfa -16 + ^ .cfa: $rsp 16 +
STACK CFI efd4 $r13: .cfa -24 + ^ .cfa: $rsp 24 +
STACK CFI efd9 $r12: .cfa -32 + ^ .cfa: $rsp 32 +
STACK CFI efda $rbp: .cfa -40 + ^ .cfa: $rsp 40 +
STACK CFI efe5 $rbx: .cfa -48 + ^ .cfa: $rsp 48 +
STACK CFI f086 .cfa: $rsp 40 +
STACK CFI f087 .cfa: $rsp 32 +
STACK CFI f089 .cfa: $rsp 24 +
STACK CFI f08b .cfa: $rsp 16 +
STACK CFI f08d .cfa: $rsp 8 +
STACK CFI f090 .cfa: $rsp 48 +
STACK CFI INIT f0d0 b1 .cfa: $rsp 8 + .ra: .cfa -8 + ^
STACK CFI f0d2 $r15: .cfa -16 + ^ .cfa: $rsp 16 +
STACK CFI f0d4 $r14: .cfa -24 + ^ .cfa: $rsp 24 +
STACK CFI f0d8 $r13: .cfa -32 + ^ .cfa: $rsp 32 +
STACK CFI f0da $r12: .cfa -40 + ^ .cfa: $rsp 40 +
STACK CFI f0de $rbp: .cfa -48 + ^ .cfa: $rsp 48 +
STACK CFI f0df $rbx: .cfa -56 + ^ .cfa: $rsp 56 +
STACK CFI f0f2 .cfa: $rsp 96 +
STACK CFI f169 .cfa: $rsp 56 +
STACK CFI f16a .cfa: $rsp 48 +
STACK CFI f16b .cfa: $rsp 40 +
STACK CFI f16d .cfa: $rsp 32 +
STACK CFI f16f .cfa: $rsp 24 +
STACK CFI f171 .cfa: $rsp 16 +
STACK CFI f173 .cfa: $rsp 8 +
STACK CFI f178 .cfa: $rsp 96 +
STACK CFI INIT f190 7b .cfa: $rsp 8 + .ra: .cfa -8 + ^
STACK CFI f191 $rbx: .cfa -16 + ^ .cfa: $rsp 16 +
STACK CFI f19d .cfa: $rsp 64 +
STACK CFI f204 .cfa: $rsp 16 +
STACK CFI f205 .cfa: $rsp 8 +
STACK CFI f206 .cfa: $rsp 64 +
STACK CFI INIT f210 160 .cfa: $rsp 8 + .ra: .cfa -8 + ^
STACK CFI f212 $r14: .cfa -16 + ^ .cfa: $rsp 16 +
STACK CFI f214 $r13: .cfa -24 + ^ .cfa: $rsp 24 +
STACK CFI f216 $r12: .cfa -32 + ^ .cfa: $rsp 32 +
STACK CFI f217 $rbp: .cfa -40 + ^ .cfa: $rsp 40 +
STACK CFI f21b $rbx: .cfa -48 + ^ .cfa: $rsp 48 +
STACK CFI f224 .cfa: $rsp 80 +
STACK CFI f321 .cfa: $rsp 48 +
STACK CFI f322 .cfa: $rsp 40 +
STACK CFI f323 .cfa: $rsp 32 +
STACK CFI f325 .cfa: $rsp 24 +
STACK CFI f327 .cfa: $rsp 16 +
STACK CFI f329 .cfa: $rsp 8 +
STACK CFI f330 .cfa: $rsp 80 +
STACK CFI INIT f5f0 283 .cfa: $rsp 8 + .ra: .cfa -8 + ^
STACK CFI f5fb $r15: .cfa -16 + ^ .cfa: $rsp 16 +
STACK CFI f5fd $r14: .cfa -24 + ^ .cfa: $rsp 24 +
STACK CFI f602 $r13: .cfa -32 + ^ .cfa: $rsp 32 +
STACK CFI f604 $r12: .cfa -40 + ^ .cfa: $rsp 40 +
STACK CFI f605 $rbp: .cfa -48 + ^ .cfa: $rsp 48 +
STACK CFI f606 $rbx: .cfa -56 + ^ .cfa: $rsp 56 +
STACK CFI f610 .cfa: $rsp 80 +
STACK CFI f691 .cfa: $rsp 56 +
STACK CFI f692 $rbx: $rbx .cfa: $rsp 48 +
STACK CFI f693 $rbp: $rbp .cfa: $rsp 40 +
STACK CFI f695 $r12: $r12 .cfa: $rsp 32 +
STACK CFI f697 $r13: $r13 .cfa: $rsp 24 +
STACK CFI f699 $r14: $r14 .cfa: $rsp 16 +
STACK CFI f69b $r15: $r15 .cfa: $rsp 8 +
STACK CFI f6a0 $r12: .cfa -40 + ^ $r13: .cfa -32 + ^ $r14: .cfa -24 + ^ $r15: .cfa -16 + ^ $rbp: .cfa -48 + ^ $rbx: .cfa -56 + ^ .cfa: $rsp 80 +
STACK CFI f6f1 .cfa: $rsp 56 +
STACK CFI f6f2 $rbx: $rbx .cfa: $rsp 48 +
STACK CFI f6f3 $rbp: $rbp .cfa: $rsp 40 +
STACK CFI f6f5 $r12: $r12 .cfa: $rsp 32 +
STACK CFI f6f7 $r13: $r13 .cfa: $rsp 24 +
STACK CFI f6f9 $r14: $r14 .cfa: $rsp 16 +
STACK CFI f6fb $r15: $r15 .cfa: $rsp 8 +
STACK CFI f700 $r12: .cfa -40 + ^ $r13: .cfa -32 + ^ $r14: .cfa -24 + ^ $r15: .cfa -16 + ^ $rbp: .cfa -48 + ^ $rbx: .cfa -56 + ^ .cfa: $rsp 80 +
STACK CFI f81f .cfa: $rsp 56 +
STACK CFI f820 $rbx: $rbx .cfa: $rsp 48 +
STACK CFI f821 $rbp: $rbp .cfa: $rsp 40 +
STACK CFI f823 $r12: $r12 .cfa: $rsp 32 +
STACK CFI f825 $r13: $r13 .cfa: $rsp 24 +
STACK CFI f827 $r14: $r14 .cfa: $rsp 16 +
STACK CFI f829 $r15: $r15 .cfa: $rsp 8 +
STACK CFI f830 $r12: .cfa -40 + ^ $r13: .cfa -32 + ^ $r14: .cfa -24 + ^ $r15: .cfa -16 + ^ $rbp: .cfa -48 + ^ $rbx: .cfa -56 + ^ .cfa: $rsp 80 +
STACK CFI INIT f370 13a .cfa: $rsp 8 + .ra: .cfa -8 + ^
STACK CFI f372 $r12: .cfa -16 + ^ .cfa: $rsp 16 +
STACK CFI f373 $rbp: .cfa -24 + ^ .cfa: $rsp 24 +
STACK CFI f377 $rbx: .cfa -32 + ^ .cfa: $rsp 32 +
STACK CFI f37e .cfa: $rsp 64 +
STACK CFI f434 .cfa: $rsp 32 +
STACK CFI f435 .cfa: $rsp 24 +
STACK CFI f436 .cfa: $rsp 16 +
STACK CFI f438 .cfa: $rsp 8 +
STACK CFI f440 .cfa: $rsp 64 +
STACK CFI INIT f4b0 13a .cfa: $rsp 8 + .ra: .cfa -8 + ^
STACK CFI f4b2 $r12: .cfa -16 + ^ .cfa: $rsp 16 +
STACK CFI f4b3 $rbp: .cfa -24 + ^ .cfa: $rsp 24 +
STACK CFI f4b7 $rbx: .cfa -32 + ^ .cfa: $rsp 32 +
STACK CFI f4be .cfa: $rsp 64 +
STACK CFI f572 .cfa: $rsp 32 +
STACK CFI f573 .cfa: $rsp 24 +
STACK CFI f574 .cfa: $rsp 16 +
STACK CFI f576 .cfa: $rsp 8 +
STACK CFI f580 .cfa: $rsp 64 +
STACK CFI INIT f880 1f .cfa: $rsp 8 + .ra: .cfa -8 + ^
STACK CFI f88b .cfa: $rsp 16 +
STACK CFI f89e .cfa: $rsp 8 +
STACK CFI INIT f8a0 5 .cfa: $rsp 8 + .ra: .cfa -8 + ^
STACK CFI INIT f8b0 44e .cfa: $rsp 8 + .ra: .cfa -8 + ^
STACK CFI f8b2 $r15: .cfa -16 + ^ .cfa: $rsp 16 +
STACK CFI f8b4 $r14: .cfa -24 + ^ .cfa: $rsp 24 +
STACK CFI f8b6 $r13: .cfa -32 + ^ .cfa: $rsp 32 +
STACK CFI f8b8 $r12: .cfa -40 + ^ .cfa: $rsp 40 +
STACK CFI f8b9 $rbp: .cfa -48 + ^ .cfa: $rsp 48 +
STACK CFI f8ba $rbx: .cfa -56 + ^ .cfa: $rsp 56 +
STACK CFI f8c1 .cfa: $rsp 96 +
STACK CFI f907 .cfa: $rsp 56 +
STACK CFI f90a .cfa: $rsp 48 +
STACK CFI f90b .cfa: $rsp 40 +
STACK CFI f90d .cfa: $rsp 32 +
STACK CFI f90f .cfa: $rsp 24 +
STACK CFI f911 .cfa: $rsp 16 +
STACK CFI f913 .cfa: $rsp 8 +
STACK CFI f918 .cfa: $rsp 96 +
STACK CFI fa3e .cfa: $rsp 56 +
STACK CFI fa3f .cfa: $rsp 48 +
STACK CFI fa40 .cfa: $rsp 40 +
STACK CFI fa42 .cfa: $rsp 32 +
STACK CFI fa44 .cfa: $rsp 24 +
STACK CFI fa46 .cfa: $rsp 16 +
STACK CFI fa48 .cfa: $rsp 8 +
STACK CFI fa50 .cfa: $rsp 96 +
STACK CFI INIT fd00 287 .cfa: $rsp 8 + .ra: .cfa -8 + ^
STACK CFI fd05 $r14: .cfa -16 + ^ .cfa: $rsp 16 +
STACK CFI fd07 $r13: .cfa -24 + ^ .cfa: $rsp 24 +
STACK CFI fd09 $r12: .cfa -32 + ^ .cfa: $rsp 32 +
STACK CFI fd0a $rbp: .cfa -40 + ^ .cfa: $rsp 40 +
STACK CFI fd0b $rbx: .cfa -48 + ^ .cfa: $rsp 48 +
STACK CFI fd4a .cfa: $rsp 40 +
STACK CFI fd4d .cfa: $rsp 32 +
STACK CFI fd4f .cfa: $rsp 24 +
STACK CFI fd51 .cfa: $rsp 16 +
STACK CFI fd53 .cfa: $rsp 8 +
STACK CFI fd58 .cfa: $rsp 48 +
STACK CFI fdf9 .cfa: $rsp 40 +
STACK CFI fdfa .cfa: $rsp 32 +
STACK CFI fdfc .cfa: $rsp 24 +
STACK CFI fdfe .cfa: $rsp 16 +
STACK CFI fe00 .cfa: $rsp 8 +
STACK CFI fe08 .cfa: $rsp 48 +
STACK CFI INIT ff90 134 .cfa: $rsp 8 + .ra: .cfa -8 + ^
STACK CFI ff92 $r15: .cfa -16 + ^ .cfa: $rsp 16 +
STACK CFI ff94 $r14: .cfa -24 + ^ .cfa: $rsp 24 +
STACK CFI ff99 $r13: .cfa -32 + ^ .cfa: $rsp 32 +
STACK CFI ff9b $r12: .cfa -40 + ^ .cfa: $rsp 40 +
STACK CFI ff9f $rbp: .cfa -48 + ^ .cfa: $rsp 48 +
STACK CFI ffa0 $rbx: .cfa -56 + ^ .cfa: $rsp 56 +
STACK CFI ffa4 .cfa: $rsp 96 +
STACK CFI 1006b .cfa: $rsp 56 +
STACK CFI 1006c .cfa: $rsp 48 +
STACK CFI 1006d .cfa: $rsp 40 +
STACK CFI 1006f .cfa: $rsp 32 +
STACK CFI 10071 .cfa: $rsp 24 +
STACK CFI 10073 .cfa: $rsp 16 +
STACK CFI 10075 .cfa: $rsp 8 +
STACK CFI 10076 .cfa: $rsp 96 +
STACK CFI INIT 100d0 38 .cfa: $rsp 8 + .ra: .cfa -8 + ^
STACK CFI 100d4 .cfa: $rsp 32 +
STACK CFI 10102 .cfa: $rsp 8 +
STACK CFI 10103 .cfa: $rsp 32 +
STACK CFI INIT 10110 c7 .cfa: $rsp 8 + .ra: .cfa -8 + ^
STACK CFI 10111 $rbx: .cfa -16 + ^ .cfa: $rsp 16 +
STACK CFI 10118 .cfa: $rsp 48 +
STACK CFI 101a7 .cfa: $rsp 16 +
STACK CFI 101a8 .cfa: $rsp 8 +
STACK CFI 101b0 .cfa: $rsp 48 +
STACK CFI INIT 101e0 1c .cfa: $rsp 8 + .ra: .cfa -8 + ^
STACK CFI 101e1 $rbx: .cfa -16 + ^ .cfa: $rsp 16 +
STACK CFI 101fb .cfa: $rsp 8 +
STACK CFI INIT 104e0 261 .cfa: $rsp 8 + .ra: .cfa -8 + ^
STACK CFI 10522 $r15: .cfa -16 + ^ .cfa: $rsp 16 +
STACK CFI 10524 $r14: .cfa -24 + ^ .cfa: $rsp 24 +
STACK CFI 10529 $r13: .cfa -32 + ^ .cfa: $rsp 32 +
STACK CFI 1052b $r12: .cfa -40 + ^ .cfa: $rsp 40 +
STACK CFI 1052c $rbp: .cfa -48 + ^ .cfa: $rsp 48 +
STACK CFI 1052d $rbx: .cfa -56 + ^ .cfa: $rsp 56 +
STACK CFI 10537 .cfa: $rsp 80 +
STACK CFI 105cc .cfa: $rsp 56 +
STACK CFI 105cd $rbx: $rbx .cfa: $rsp 48 +
STACK CFI 105ce $rbp: $rbp .cfa: $rsp 40 +
STACK CFI 105d0 $r12: $r12 .cfa: $rsp 32 +
STACK CFI 105d2 $r13: $r13 .cfa: $rsp 24 +
STACK CFI 105d4 $r14: $r14 .cfa: $rsp 16 +
STACK CFI 105d6 $r15: $r15 .cfa: $rsp 8 +
STACK CFI 105e0 $r12: .cfa -40 + ^ $r13: .cfa -32 + ^ $r14: .cfa -24 + ^ $r15: .cfa -16 + ^ $rbp: .cfa -48 + ^ $rbx: .cfa -56 + ^ .cfa: $rsp 80 +
STACK CFI INIT 10200 259 .cfa: $rsp 8 + .ra: .cfa -8 + ^
STACK CFI 10202 $r14: .cfa -16 + ^ .cfa: $rsp 16 +
STACK CFI 10204 $r13: .cfa -24 + ^ .cfa: $rsp 24 +
STACK CFI 10206 $r12: .cfa -32 + ^ .cfa: $rsp 32 +
STACK CFI 10207 $rbp: .cfa -40 + ^ .cfa: $rsp 40 +
STACK CFI 1020b $rbx: .cfa -48 + ^ .cfa: $rsp 48 +
STACK CFI 10217 .cfa: $rsp 96 +
STACK CFI 102d5 .cfa: $rsp 48 +
STACK CFI 102d6 .cfa: $rsp 40 +
STACK CFI 102d7 .cfa: $rsp 32 +
STACK CFI 102d9 .cfa: $rsp 24 +
STACK CFI 102db .cfa: $rsp 16 +
STACK CFI 102dd .cfa: $rsp 8 +
STACK CFI 102e0 .cfa: $rsp 96 +
STACK CFI 10351 .cfa: $rsp 104 +
STACK CFI 10356 .cfa: $rsp 112 +
STACK CFI 1036e .cfa: $rsp 104 +
STACK CFI 10374 .cfa: $rsp 96 +
STACK CFI INIT 10460 7c .cfa: $rsp 8 + .ra: .cfa -8 + ^
STACK CFI 10461 $rbp: .cfa -16 + ^ .cfa: $rsp 16 +
STACK CFI 10462 $rbx: .cfa -24 + ^ .cfa: $rsp 24 +
STACK CFI 1046b .cfa: $rsp 64 +
STACK CFI 104ba .cfa: $rsp 24 +
STACK CFI 104bb .cfa: $rsp 16 +
STACK CFI 104bc .cfa: $rsp 8 +
STACK CFI 104c0 .cfa: $rsp 64 +
STACK CFI INIT 10890 16 .cfa: $rsp 8 + .ra: .cfa -8 + ^
STACK CFI 10894 .cfa: $rsp 16 +
STACK CFI 1089f .cfa: $rsp 8 +
STACK CFI INIT 10750 73 .cfa: $rsp 8 + .ra: .cfa -8 + ^
STACK CFI 10751 $rbx: .cfa -16 + ^ .cfa: $rsp 16 +
STACK CFI 107c2 .cfa: $rsp 8 +
STACK CFI INIT 107d0 b5 .cfa: $rsp 8 + .ra: .cfa -8 + ^
STACK CFI 107d4 $rbx: .cfa -16 + ^ .cfa: $rsp 16 +
STACK CFI 10809 .cfa: $rsp 24 +
STACK CFI 10837 .cfa: $rsp 32 +
STACK CFI 1083c .cfa: $rsp 40 +
STACK CFI 10841 .cfa: $rsp 48 +
STACK CFI 10852 .cfa: $rsp 16 +
STACK CFI 10865 .cfa: $rsp 8 +
STACK CFI 10866 .cfa: $rsp 16 +
STACK CFI INIT 108b0 1e .cfa: $rsp 8 + .ra: .cfa -8 + ^
STACK CFI INIT 108d0 46 .cfa: $rsp 8 + .ra: .cfa -8 + ^
STACK CFI INIT 10920 56 .cfa: $rsp 8 + .ra: .cfa -8 + ^
STACK CFI INIT 10980 4c .cfa: $rsp 8 + .ra: .cfa -8 + ^
STACK CFI INIT 109d0 39 .cfa: $rsp 8 + .ra: .cfa -8 + ^
STACK CFI INIT 10a10 3c .cfa: $rsp 8 + .ra: .cfa -8 + ^
STACK CFI INIT 10a50 2b .cfa: $rsp 8 + .ra: .cfa -8 + ^
STACK CFI INIT 10a80 26 .cfa: $rsp 8 + .ra: .cfa -8 + ^
STACK CFI INIT 10ab0 2b .cfa: $rsp 8 + .ra: .cfa -8 + ^
STACK CFI INIT 10ae0 7c .cfa: $rsp 8 + .ra: .cfa -8 + ^
STACK CFI INIT 10b60 3a .cfa: $rsp 8 + .ra: .cfa -8 + ^
STACK CFI INIT 10ba0 1f .cfa: $rsp 8 + .ra: .cfa -8 + ^
STACK CFI INIT 10bc0 38 .cfa: $rsp 8 + .ra: .cfa -8 + ^
STACK CFI INIT 10c00 3c .cfa: $rsp 8 + .ra: .cfa -8 + ^
STACK CFI 10c06 $rbx: .cfa -16 + ^ .cfa: $rsp 16 +
STACK CFI 10c23 $rbx: $rbx .cfa: $rsp 8 +
STACK CFI 10c28 $rbx: .cfa -16 + ^ .cfa: $rsp 16 +
STACK CFI 10c37 $rbx: $rbx .cfa: $rsp 8 +
STACK CFI INIT 10c40 6c .cfa: $rsp 8 + .ra: .cfa -8 + ^
STACK CFI 10c44 .cfa: $rsp 32 +
STACK CFI 10c98 .cfa: $rsp 8 +
STACK CFI 10ca0 .cfa: $rsp 32 +
STACK CFI INIT 10cb0 10 .cfa: $rsp 8 + .ra: .cfa -8 + ^
STACK CFI INIT 10cc0 4b .cfa: $rsp 8 + .ra: .cfa -8 + ^
STACK CFI 10cc1 $rbp: .cfa -16 + ^ .cfa: $rsp 16 +
STACK CFI 10cc2 $rbx: .cfa -24 + ^ .cfa: $rsp 24 +
STACK CFI 10cc9 .cfa: $rsp 32 +
STACK CFI 10cfc .cfa: $rsp 24 +
STACK CFI 10cfd .cfa: $rsp 16 +
STACK CFI 10cfe .cfa: $rsp 8 +
STACK CFI 10d00 .cfa: $rsp 32 +
STACK CFI INIT 10d10 5 .cfa: $rsp 8 + .ra: .cfa -8 + ^
STACK CFI INIT 10d20 1b4 .cfa: $rsp 8 + .ra: .cfa -8 + ^
STACK CFI 10d22 $r15: .cfa -16 + ^ .cfa: $rsp 16 +
STACK CFI 10d24 $r14: .cfa -24 + ^ .cfa: $rsp 24 +
STACK CFI 10d29 $r13: .cfa -32 + ^ .cfa: $rsp 32 +
STACK CFI 10d2b $r12: .cfa -40 + ^ .cfa: $rsp 40 +
STACK CFI 10d2f $rbp: .cfa -48 + ^ .cfa: $rsp 48 +
STACK CFI 10d30 $rbx: .cfa -56 + ^ .cfa: $rsp 56 +
STACK CFI 10d3d .cfa: $rsp 224 +
STACK CFI 10e97 .cfa: $rsp 56 +
STACK CFI 10e98 .cfa: $rsp 48 +
STACK CFI 10e99 .cfa: $rsp 40 +
STACK CFI 10e9b .cfa: $rsp 32 +
STACK CFI 10e9d .cfa: $rsp 24 +
STACK CFI 10e9f .cfa: $rsp 16 +
STACK CFI 10ea1 .cfa: $rsp 8 +
STACK CFI 10ea8 .cfa: $rsp 224 +
STACK CFI INIT 10ee0 14 .cfa: $rsp 8 + .ra: .cfa -8 + ^
STACK CFI INIT 10f00 40 .cfa: $rsp 8 + .ra: .cfa -8 + ^
STACK CFI 10f06 $rbx: .cfa -16 + ^ .cfa: $rsp 16 +
STACK CFI 10f21 .cfa: $rsp 8 +
STACK CFI 10f28 .cfa: $rsp 16 +
STACK CFI 10f3f .cfa: $rsp 8 +
STACK CFI INIT 10f40 2 .cfa: $rsp 8 + .ra: .cfa -8 + ^
STACK CFI INIT 10f50 5 .cfa: $rsp 8 + .ra: .cfa -8 + ^
STACK CFI INIT 10f60 202 .cfa: $rsp 8 + .ra: .cfa -8 + ^
STACK CFI 10f62 $r15: .cfa -16 + ^ .cfa: $rsp 16 +
STACK CFI 10f64 $r14: .cfa -24 + ^ .cfa: $rsp 24 +
STACK CFI 10f6b $r13: .cfa -32 + ^ .cfa: $rsp 32 +
STACK CFI 10f6d $r12: .cfa -40 + ^ .cfa: $rsp 40 +
STACK CFI 10f6e $rbp: .cfa -48 + ^ .cfa: $rsp 48 +
STACK CFI 10f6f $rbx: .cfa -56 + ^ .cfa: $rsp 56 +
STACK CFI 10f79 .cfa: $rsp 208 +
STACK CFI 1110c .cfa: $rsp 56 +
STACK CFI 1110d .cfa: $rsp 48 +
STACK CFI 1110e .cfa: $rsp 40 +
STACK CFI 11110 .cfa: $rsp 32 +
STACK CFI 11112 .cfa: $rsp 24 +
STACK CFI 11114 .cfa: $rsp 16 +
STACK CFI 11116 .cfa: $rsp 8 +
STACK CFI 11120 .cfa: $rsp 208 +
STACK CFI INIT 11170 23 .cfa: $rsp 8 + .ra: .cfa -8 + ^
STACK CFI 11175 $rbx: .cfa -16 + ^ .cfa: $rsp 16 +
STACK CFI 1118f $rbx: $rbx .cfa: $rsp 8 +
STACK CFI INIT 111a0 8 .cfa: $rsp 8 + .ra: .cfa -8 + ^
STACK CFI INIT 111b0 2ff .cfa: $rsp 8 + .ra: .cfa -8 + ^
STACK CFI INIT 114b0 43 .cfa: $rsp 8 + .ra: .cfa -8 + ^
STACK CFI 114dc .cfa: $rsp 16 +
STACK CFI INIT 11500 46 .cfa: $rsp 8 + .ra: .cfa -8 + ^
STACK CFI 1152f .cfa: $rsp 16 +
STACK CFI INIT 11550 8 .cfa: $rsp 8 + .ra: .cfa -8 + ^
STACK CFI INIT 11560 8 .cfa: $rsp 8 + .ra: .cfa -8 + ^
STACK CFI INIT 11570 262 .cfa: $rsp 8 + .ra: .cfa -8 + ^
STACK CFI INIT 117e0 c7 .cfa: $rsp 8 + .ra: .cfa -8 + ^
STACK CFI INIT 118b0 105 .cfa: $rsp 8 + .ra: .cfa -8 + ^
STACK CFI 118b1 $rbp: .cfa -16 + ^ .cfa: $rsp 16 +
STACK CFI 118b2 $rbx: .cfa -24 + ^ .cfa: $rsp 24 +
STACK CFI 1193f .cfa: $rsp 16 +
STACK CFI 11940 .cfa: $rsp 8 +
STACK CFI 11948 .cfa: $rsp 24 +
STACK CFI 119a2 .cfa: $rsp 16 +
STACK CFI 119a3 .cfa: $rsp 8 +
STACK CFI 119a4 .cfa: $rsp 24 +
STACK CFI INIT 119c0 f1 .cfa: $rsp 8 + .ra: .cfa -8 + ^
STACK CFI 119c5 $r15: .cfa -16 + ^ .cfa: $rsp 16 +
STACK CFI 119c7 $r14: .cfa -24 + ^ .cfa: $rsp 24 +
STACK CFI 119c9 $r13: .cfa -32 + ^ .cfa: $rsp 32 +
STACK CFI 119cb $r12: .cfa -40 + ^ .cfa: $rsp 40 +
STACK CFI 119d2 $rbp: .cfa -48 + ^ .cfa: $rsp 48 +
STACK CFI 119d3 $rbx: .cfa -56 + ^ .cfa: $rsp 56 +
STACK CFI 11a8e .cfa: $rsp 48 +
STACK CFI 11a8f .cfa: $rsp 40 +
STACK CFI 11a97 .cfa: $rsp 32 +
STACK CFI 11a99 .cfa: $rsp 24 +
STACK CFI 11a9b .cfa: $rsp 16 +
STACK CFI 11a9d .cfa: $rsp 8 +
STACK CFI 11aa0 .cfa: $rsp 56 +
STACK CFI INIT 11ac0 1ee .cfa: $rsp 8 + .ra: .cfa -8 + ^
STACK CFI 11ac2 $r13: .cfa -16 + ^ .cfa: $rsp 16 +
STACK CFI 11ac4 $r12: .cfa -24 + ^ .cfa: $rsp 24 +
STACK CFI 11ac5 $rbp: .cfa -32 + ^ .cfa: $rsp 32 +
STACK CFI 11ac6 $rbx: .cfa -40 + ^ .cfa: $rsp 40 +
STACK CFI 11bb6 .cfa: $rsp 32 +
STACK CFI 11bb7 .cfa: $rsp 24 +
STACK CFI 11bb9 .cfa: $rsp 16 +
STACK CFI 11bbb .cfa: $rsp 8 +
STACK CFI 11bc0 .cfa: $rsp 40 +
STACK CFI 11c15 .cfa: $rsp 32 +
STACK CFI 11c16 .cfa: $rsp 24 +
STACK CFI 11c18 .cfa: $rsp 16 +
STACK CFI 11c1a .cfa: $rsp 8 +
STACK CFI 11c20 .cfa: $rsp 40 +
STACK CFI 11c49 .cfa: $rsp 32 +
STACK CFI 11c4a .cfa: $rsp 24 +
STACK CFI 11c4c .cfa: $rsp 16 +
STACK CFI 11c4e .cfa: $rsp 8 +
STACK CFI 11c4f .cfa: $rsp 40 +
STACK CFI 11c62 .cfa: $rsp 32 +
STACK CFI 11c63 .cfa: $rsp 24 +
STACK CFI 11c68 .cfa: $rsp 16 +
STACK CFI 11c6a .cfa: $rsp 8 +
STACK CFI 11c6b .cfa: $rsp 40 +
STACK CFI INIT 11cb0 2b .cfa: $rsp 8 + .ra: .cfa -8 + ^
STACK CFI INIT 11ce0 27f .cfa: $rsp 8 + .ra: .cfa -8 + ^
STACK CFI 11ce2 $r15: .cfa -16 + ^ .cfa: $rsp 16 +
STACK CFI 11ce4 $r14: .cfa -24 + ^ .cfa: $rsp 24 +
STACK CFI 11ce6 $r13: .cfa -32 + ^ .cfa: $rsp 32 +
STACK CFI 11ce8 $r12: .cfa -40 + ^ .cfa: $rsp 40 +
STACK CFI 11ce9 $rbp: .cfa -48 + ^ .cfa: $rsp 48 +
STACK CFI 11cea $rbx: .cfa -56 + ^ .cfa: $rsp 56 +
STACK CFI 11cee .cfa: $rsp 96 +
STACK CFI 11e54 .cfa: $rsp 56 +
STACK CFI 11e55 .cfa: $rsp 48 +
STACK CFI 11e56 .cfa: $rsp 40 +
STACK CFI 11e58 .cfa: $rsp 32 +
STACK CFI 11e5a .cfa: $rsp 24 +
STACK CFI 11e5c .cfa: $rsp 16 +
STACK CFI 11e5e .cfa: $rsp 8 +
STACK CFI 11e60 .cfa: $rsp 96 +
STACK CFI INIT 11f60 1af .cfa: $rsp 8 + .ra: .cfa -8 + ^
STACK CFI 11f62 $r13: .cfa -16 + ^ .cfa: $rsp 16 +
STACK CFI 11f64 $r12: .cfa -24 + ^ .cfa: $rsp 24 +
STACK CFI 11f65 $rbp: .cfa -32 + ^ .cfa: $rsp 32 +
STACK CFI 11f69 $rbx: .cfa -40 + ^ .cfa: $rsp 40 +
STACK CFI 1203b .cfa: $rsp 32 +
STACK CFI 1203c .cfa: $rsp 24 +
STACK CFI 1203e .cfa: $rsp 16 +
STACK CFI 12040 .cfa: $rsp 8 +
STACK CFI 12048 .cfa: $rsp 40 +
STACK CFI 120bf .cfa: $rsp 32 +
STACK CFI 120c0 .cfa: $rsp 24 +
STACK CFI 120c2 .cfa: $rsp 16 +
STACK CFI 120c4 .cfa: $rsp 8 +
STACK CFI 120c8 .cfa: $rsp 40 +
STACK CFI 120e1 .cfa: $rsp 32 +
STACK CFI 120e2 .cfa: $rsp 24 +
STACK CFI 120e4 .cfa: $rsp 16 +
STACK CFI 120e6 .cfa: $rsp 8 +
STACK CFI 120e7 .cfa: $rsp 40 +
STACK CFI INIT 12110 2a7 .cfa: $rsp 8 + .ra: .cfa -8 + ^
STACK CFI 12112 $r15: .cfa -16 + ^ .cfa: $rsp 16 +
STACK CFI 12114 $r14: .cfa -24 + ^ .cfa: $rsp 24 +
STACK CFI 12116 $r13: .cfa -32 + ^ .cfa: $rsp 32 +
STACK CFI 12118 $r12: .cfa -40 + ^ .cfa: $rsp 40 +
STACK CFI 12119 $rbp: .cfa -48 + ^ .cfa: $rsp 48 +
STACK CFI 1211a $rbx: .cfa -56 + ^ .cfa: $rsp 56 +
STACK CFI 1211e .cfa: $rsp 104 +
STACK CFI 122bc .cfa: $rsp 56 +
STACK CFI 122bd .cfa: $rsp 48 +
STACK CFI 122be .cfa: $rsp 40 +
STACK CFI 122c0 .cfa: $rsp 32 +
STACK CFI 122c2 .cfa: $rsp 24 +
STACK CFI 122c4 .cfa: $rsp 16 +
STACK CFI 122c6 .cfa: $rsp 8 +
STACK CFI 122d0 .cfa: $rsp 104 +
STACK CFI INIT 123c0 65 .cfa: $rsp 8 + .ra: .cfa -8 + ^
STACK CFI 123c2 $r15: .cfa -16 + ^ .cfa: $rsp 16 +
STACK CFI 123c4 $r14: .cfa -24 + ^ .cfa: $rsp 24 +
STACK CFI 123c9 $r13: .cfa -32 + ^ .cfa: $rsp 32 +
STACK CFI 123cb $r12: .cfa -40 + ^ .cfa: $rsp 40 +
STACK CFI 123d3 $rbp: .cfa -48 + ^ .cfa: $rsp 48 +
STACK CFI 123db $rbx: .cfa -56 + ^ .cfa: $rsp 56 +
STACK CFI 123ea .cfa: $rsp 64 +
STACK CFI 1241a .cfa: $rsp 56 +
STACK CFI 1241b .cfa: $rsp 48 +
STACK CFI 1241c .cfa: $rsp 40 +
STACK CFI 1241e .cfa: $rsp 32 +
STACK CFI 12420 .cfa: $rsp 24 +
STACK CFI 12422 .cfa: $rsp 16 +
STACK CFI 12424 .cfa: $rsp 8 +
STACK CFI INIT 12430 2 .cfa: $rsp 8 + .ra: .cfa -8 + ^
